

Microchip MPLAB XC8 Assembler V2.10 build 88905656 
                                                                                               Sat Jul 18 02:23:47 2020

Microchip MPLAB XC8 C Compiler v2.10 (Free license) build 20190730164152 Og1 
     1                           	processor	16F877A
     2                           	opt	pw 120
     3                           	opt	flic
     4                           	psect	idataBANK0,global,class=CODE,delta=2
     5                           	psect	cinit,global,class=CODE,merge=1,delta=2
     6                           	psect	bssCOMMON,global,class=COMMON,space=1,delta=1
     7                           	psect	bssBANK0,global,class=BANK0,space=1,delta=1
     8                           	psect	dataBANK0,global,class=BANK0,space=1,delta=1
     9                           	psect	inittext,global,class=CODE,delta=2
    10                           	psect	clrtext,global,class=CODE,delta=2
    11                           	psect	cstackCOMMON,global,class=COMMON,space=1,delta=1
    12                           	psect	cstackBANK0,global,class=BANK0,space=1,delta=1
    13                           	psect	maintext,global,class=CODE,split=1,delta=2
    14                           	psect	text1,local,class=CODE,merge=1,delta=2
    15                           	psect	text2,local,class=CODE,merge=1,delta=2
    16                           	psect	text3,local,class=CODE,merge=1,delta=2
    17                           	psect	text4,local,class=CODE,merge=1,delta=2
    18                           	psect	text5,local,class=CODE,merge=1,delta=2
    19                           	psect	text6,local,class=CODE,merge=1,delta=2
    20                           	psect	text7,local,class=CODE,merge=1,delta=2
    21                           	psect	text8,local,class=CODE,merge=1,delta=2
    22                           	psect	text9,local,class=CODE,merge=1,delta=2
    23                           	psect	text10,local,class=CODE,merge=1,delta=2,group=1
    24                           	psect	text11,local,class=CODE,merge=1,delta=2
    25                           	psect	text12,local,class=CODE,merge=1,delta=2
    26                           	psect	text13,local,class=CODE,merge=1,delta=2
    27                           	psect	text14,local,class=CODE,merge=1,delta=2
    28                           	psect	text15,local,class=CODE,merge=1,delta=2
    29                           	psect	text16,local,class=CODE,merge=1,delta=2
    30                           	psect	text17,local,class=CODE,merge=1,delta=2
    31                           	psect	text18,local,class=CODE,merge=1,delta=2
    32                           	psect	text19,local,class=CODE,merge=1,delta=2
    33                           	psect	text20,local,class=CODE,merge=1,delta=2
    34                           	psect	text21,local,class=CODE,merge=1,delta=2
    35                           	psect	text22,local,class=CODE,merge=1,delta=2
    36                           	psect	text23,local,class=CODE,merge=1,delta=2
    37                           	psect	text24,local,class=CODE,merge=1,delta=2
    38                           	psect	text25,local,class=CODE,merge=1,delta=2
    39                           	psect	text26,local,class=CODE,merge=1,delta=2
    40                           	psect	text27,local,class=CODE,merge=1,delta=2,group=1
    41                           	psect	text28,local,class=CODE,merge=1,delta=2,group=1
    42                           	psect	text29,local,class=CODE,merge=1,delta=2
    43                           	psect	text30,local,class=CODE,merge=1,delta=2
    44                           	psect	text31,local,class=CODE,merge=1,delta=2
    45                           	psect	text32,local,class=CODE,merge=1,delta=2
    46                           	psect	text33,local,class=CODE,merge=1,delta=2
    47                           	psect	text34,local,class=CODE,merge=1,delta=2
    48                           	psect	text35,local,class=CODE,merge=1,delta=2
    49                           	psect	text36,local,class=CODE,merge=1,delta=2
    50                           	psect	text37,local,class=CODE,merge=1,delta=2
    51                           	psect	text38,local,class=CODE,merge=1,delta=2
    52                           	psect	text39,local,class=CODE,merge=1,delta=2
    53                           	psect	text40,local,class=CODE,merge=1,delta=2
    54                           	psect	text41,local,class=CODE,merge=1,delta=2
    55                           	psect	text42,local,class=CODE,merge=1,delta=2
    56                           	psect	text43,local,class=CODE,merge=1,delta=2
    57                           	psect	text44,local,class=CODE,merge=1,delta=2
    58                           	psect	text45,local,class=CODE,merge=1,delta=2
    59                           	psect	text46,local,class=CODE,merge=1,delta=2
    60                           	psect	text47,local,class=CODE,merge=1,delta=2,group=1
    61                           	psect	text48,local,class=CODE,merge=1,delta=2
    62                           	psect	text49,local,class=CODE,merge=1,delta=2
    63                           	psect	text50,local,class=CODE,merge=1,delta=2
    64                           	psect	text51,local,class=CODE,merge=1,delta=2
    65                           	psect	intentry,global,class=CODE,delta=2
    66                           	psect	text52,local,class=CODE,merge=1,delta=2
    67                           	psect	text53,local,class=CODE,merge=1,delta=2
    68                           	psect	functab,global,class=ENTRY,delta=2
    69                           	dabs	1,0x7E,2
    70  0000                     
    71                           ; Version 2.10
    72                           ; Generated 31/07/2019 GMT
    73                           ; 
    74                           ; Copyright © 2019, Microchip Technology Inc. and its subsidiaries ("Microchip")
    75                           ; All rights reserved.
    76                           ; 
    77                           ; This software is developed by Microchip Technology Inc. and its subsidiaries ("Microch
      +                          ip").
    78                           ; 
    79                           ; Redistribution and use in source and binary forms, with or without modification, are
    80                           ; permitted provided that the following conditions are met:
    81                           ; 
    82                           ;     1. Redistributions of source code must retain the above copyright notice, this lis
      +                          t of
    83                           ;        conditions and the following disclaimer.
    84                           ; 
    85                           ;     2. Redistributions in binary form must reproduce the above copyright notice, this 
      +                          list
    86                           ;        of conditions and the following disclaimer in the documentation and/or other
    87                           ;        materials provided with the distribution.
    88                           ; 
    89                           ;     3. Microchip's name may not be used to endorse or promote products derived from th
      +                          is
    90                           ;        software without specific prior written permission.
    91                           ; 
    92                           ; THIS SOFTWARE IS PROVIDED BY MICROCHIP "AS IS" AND ANY EXPRESS OR IMPLIED WARRANTIES,
    93                           ; INCLUDING, BUT NOT LIMITED TO, THE IMPLIED WARRANTIES OF MERCHANTABILITY AND FITNESS F
      +                          OR
    94                           ; PURPOSE ARE DISCLAIMED.  IN NO EVENT SHALL MICROCHIP BE LIABLE FOR ANY DIRECT, INDIREC
      +                          T,
    95                           ; INCIDENTAL, SPECIAL, EXEMPLARY, OR CONSEQUENTIAL DAMAGES (INCLUDING BUT NOT LIMITED TO
    96                           ; PROCUREMENT OF SUBSTITUTE GOODS OR SERVICES; LOSS OF USE, DATA OR PROFITS; OR BUSINESS
    97                           ; INTERRUPTION) HOWSOEVER CAUSED AND ON ANY THEORY OF LIABILITY, WHETHER IN CONTRACT, ST
      +                          RICT
    98                           ; LIABILITY, OR TORT (INCLUDING NEGLIGENCE OR OTHERWISE) ARISING IN ANY WAY OUT OF THE U
      +                          SE OF
    99                           ; THIS SOFTWARE, EVEN IF ADVISED OF THE POSSIBILITY OF SUCH DAMAGE.
   100                           ; 
   101                           ; 
   102                           ; Code-generator required, PIC16F877A Definitions
   103                           ; 
   104                           ; SFR Addresses
   105  0000                     	;# 
   106  0001                     	;# 
   107  0002                     	;# 
   108  0003                     	;# 
   109  0004                     	;# 
   110  0005                     	;# 
   111  0006                     	;# 
   112  0007                     	;# 
   113  0008                     	;# 
   114  0009                     	;# 
   115  000A                     	;# 
   116  000B                     	;# 
   117  000C                     	;# 
   118  000D                     	;# 
   119  000E                     	;# 
   120  000E                     	;# 
   121  000F                     	;# 
   122  0010                     	;# 
   123  0011                     	;# 
   124  0012                     	;# 
   125  0013                     	;# 
   126  0014                     	;# 
   127  0015                     	;# 
   128  0015                     	;# 
   129  0016                     	;# 
   130  0017                     	;# 
   131  0018                     	;# 
   132  0019                     	;# 
   133  001A                     	;# 
   134  001B                     	;# 
   135  001B                     	;# 
   136  001C                     	;# 
   137  001D                     	;# 
   138  001E                     	;# 
   139  001F                     	;# 
   140  0081                     	;# 
   141  0085                     	;# 
   142  0086                     	;# 
   143  0087                     	;# 
   144  0088                     	;# 
   145  0089                     	;# 
   146  008C                     	;# 
   147  008D                     	;# 
   148  008E                     	;# 
   149  0091                     	;# 
   150  0092                     	;# 
   151  0093                     	;# 
   152  0094                     	;# 
   153  0098                     	;# 
   154  0099                     	;# 
   155  009C                     	;# 
   156  009D                     	;# 
   157  009E                     	;# 
   158  009F                     	;# 
   159  010C                     	;# 
   160  010D                     	;# 
   161  010E                     	;# 
   162  010F                     	;# 
   163  018C                     	;# 
   164  018D                     	;# 
   165  0000                     	;# 
   166  0001                     	;# 
   167  0002                     	;# 
   168  0003                     	;# 
   169  0004                     	;# 
   170  0005                     	;# 
   171  0006                     	;# 
   172  0007                     	;# 
   173  0008                     	;# 
   174  0009                     	;# 
   175  000A                     	;# 
   176  000B                     	;# 
   177  000C                     	;# 
   178  000D                     	;# 
   179  000E                     	;# 
   180  000E                     	;# 
   181  000F                     	;# 
   182  0010                     	;# 
   183  0011                     	;# 
   184  0012                     	;# 
   185  0013                     	;# 
   186  0014                     	;# 
   187  0015                     	;# 
   188  0015                     	;# 
   189  0016                     	;# 
   190  0017                     	;# 
   191  0018                     	;# 
   192  0019                     	;# 
   193  001A                     	;# 
   194  001B                     	;# 
   195  001B                     	;# 
   196  001C                     	;# 
   197  001D                     	;# 
   198  001E                     	;# 
   199  001F                     	;# 
   200  0081                     	;# 
   201  0085                     	;# 
   202  0086                     	;# 
   203  0087                     	;# 
   204  0088                     	;# 
   205  0089                     	;# 
   206  008C                     	;# 
   207  008D                     	;# 
   208  008E                     	;# 
   209  0091                     	;# 
   210  0092                     	;# 
   211  0093                     	;# 
   212  0094                     	;# 
   213  0098                     	;# 
   214  0099                     	;# 
   215  009C                     	;# 
   216  009D                     	;# 
   217  009E                     	;# 
   218  009F                     	;# 
   219  010C                     	;# 
   220  010D                     	;# 
   221  010E                     	;# 
   222  010F                     	;# 
   223  018C                     	;# 
   224  018D                     	;# 
   225                           
   226                           	psect	idataBANK0
   227  0879                     __pidataBANK0:	
   228                           
   229                           ;initializer for SevenSegment_Display@F56
   230  0879  343F               	retlw	63
   231  087A  3406               	retlw	6
   232  087B  345B               	retlw	91
   233  087C  344F               	retlw	79
   234  087D  3466               	retlw	102
   235  087E  346D               	retlw	109
   236  087F  347D               	retlw	125
   237  0880  3407               	retlw	7
   238  0881  347F               	retlw	127
   239  0882  346F               	retlw	111
   240                           
   241                           ;initializer for _Timer1_config_t
   242  0883  3400               	retlw	0
   243  0884  3400               	retlw	0
   244  0885  3402               	retlw	2
   245                           
   246                           ;initializer for _g_u8Heater_real_time_temperature
   247  0886  343C               	retlw	60
   248                           
   249                           ;initializer for _g_u8Heater_wanted_temperature
   250  0887  343C               	retlw	60
   251                           
   252                           ; #config settings
   253  0000                     
   254                           	psect	cinit
   255  0015                     start_initialization:	
   256  0015                     __initialization:	
   257                           
   258                           ; Initialize objects allocated to BANK0
   259  0015  1383               	bcf	3,7	;select IRP bank0
   260  0016  305F               	movlw	low (__pdataBANK0+15)
   261  0017  00FD               	movwf	btemp+-1
   262  0018  3008               	movlw	high __pidataBANK0
   263  0019  00FE               	movwf	btemp
   264  001A  3079               	movlw	low __pidataBANK0
   265  001B  00FF               	movwf	btemp+1
   266  001C  3050               	movlw	low __pdataBANK0
   267  001D  0084               	movwf	4
   268  001E  120A  118A  27EA  120A  118A  	fcall	init_ram0
   269                           
   270                           ; Clear objects allocated to BANK0
   271  0023  303D               	movlw	low __pbssBANK0
   272  0024  0084               	movwf	4
   273  0025  3050               	movlw	low (__pbssBANK0+19)
   274  0026  120A  158A  2048  120A  118A  	fcall	clear_ram0
   275                           
   276                           ; Clear objects allocated to COMMON
   277  002B  01FA               	clrf	__pbssCOMMON& (0+127)
   278  002C  01FB               	clrf	(__pbssCOMMON+1)& (0+127)
   279  002D  01FC               	clrf	(__pbssCOMMON+2)& (0+127)
   280  002E                     end_of_initialization:	
   281                           ;End of C runtime variable initialization code
   282                           
   283  002E                     __end_of__initialization:	
   284  002E  0183               	clrf	3
   285  002F  120A  158A  2C4C   	ljmp	_main	;jump to C main() function
   286                           
   287                           	psect	bssCOMMON
   288  007A                     __pbssCOMMON:	
   289  007A                     _g_u8End_setup_state:	
   290  007A                     	ds	1
   291  007B                     _external_interrupt_callback_ptr:	
   292  007B                     	ds	1
   293  007C                     _timer1_callback_ptr:	
   294  007C                     	ds	1
   295                           
   296                           	psect	bssBANK0
   297  003D                     __pbssBANK0:	
   298  003D                     _g_u8Reading_arr:	
   299  003D                     	ds	10
   300  0047                     _g_u16Sum_of_ten_readings:	
   301  0047                     	ds	2
   302  0049                     _g_u8Led_blank_counter:	
   303  0049                     	ds	1
   304  004A                     _g_u8Display_blank_counter:	
   305  004A                     	ds	1
   306  004B                     _g_u8Reading_deleted_element:	
   307  004B                     	ds	1
   308  004C                     _g_u8Reading_counter:	
   309  004C                     	ds	1
   310  004D                     _g_u8calculate_temperature_flag:	
   311  004D                     	ds	1
   312  004E                     _g_u8Sync_flag:	
   313  004E                     	ds	1
   314  004F                     _g_Heater_state_t:	
   315  004F                     	ds	1
   316                           
   317                           	psect	dataBANK0
   318  0050                     __pdataBANK0:	
   319  0050                     SevenSegment_Display@F56:	
   320  0050                     	ds	10
   321  005A                     _Timer1_config_t:	
   322  005A                     	ds	3
   323  005D                     _g_u8Heater_real_time_temperature:	
   324  005D                     	ds	1
   325  005E                     _g_u8Heater_wanted_temperature:	
   326  005E                     	ds	1
   327                           
   328                           	psect	inittext
   329  07E6                     init_fetch0:	
   330                           ;	Called with low address in FSR and high address in W
   331                           
   332  07E6  087E               	movf	btemp,w
   333  07E7  008A               	movwf	10
   334  07E8  087F               	movf	btemp+1,w
   335  07E9  0082               	movwf	2
   336  07EA                     init_ram0:	
   337                           ;Called with:
   338                           ;	high address of idata address in btemp 
   339                           ;	low address of idata address in btemp+1 
   340                           ;	low address of data in FSR
   341                           ;	high address + 1 of data in btemp-1
   342                           
   343  07EA  120A  118A  27E6  120A  118A  	fcall	init_fetch0
   344  07EF  0080               	movwf	0
   345  07F0  0A84               	incf	4,f
   346  07F1  0804               	movf	4,w
   347  07F2  067D               	xorwf	btemp+-1,w
   348  07F3  1903               	btfsc	3,2
   349  07F4  3400               	retlw	0
   350  07F5  0AFF               	incf	btemp+1,f
   351  07F6  1903               	btfsc	3,2
   352  07F7  0AFE               	incf	btemp,f
   353  07F8  2FEA               	goto	init_ram0
   354                           
   355                           	psect	clrtext
   356  0848                     clear_ram0:	
   357                           ;	Called with FSR containing the base address, and
   358                           ;	W with the last address+1
   359                           
   360  0848  0064               	clrwdt	;clear the watchdog before getting into this loop
   361  0849                     clrloop0:	
   362  0849  0180               	clrf	0	;clear RAM location pointed to by FSR
   363  084A  0A84               	incf	4,f	;increment pointer
   364  084B  0604               	xorwf	4,w	;XOR with final address
   365  084C  1903               	btfsc	3,2	;have we reached the end yet?
   366  084D  3400               	retlw	0	;all done for this memory range, return
   367  084E  0604               	xorwf	4,w	;XOR again to restore value
   368  084F  2849               	goto	clrloop0	;do the next byte
   369                           
   370                           	psect	cstackCOMMON
   371  0070                     __pcstackCOMMON:	
   372  0070                     ?_I2C_master_send_start_condition:	
   373  0070                     ?_I2C_master_send_data:	
   374                           ; 1 bytes @ 0x0
   375                           
   376  0070                     ?_I2C_master_send_stop_condition:	
   377                           ; 1 bytes @ 0x0
   378                           
   379  0070                     ?_I2C_master_send_repeated_start_condition:	
   380                           ; 1 bytes @ 0x0
   381                           
   382  0070                     ?_I2C_master_receive_data:	
   383                           ; 1 bytes @ 0x0
   384                           
   385  0070                     ?_Heater_Initialization:	
   386                           ; 1 bytes @ 0x0
   387                           
   388  0070                     ?_Heater_turn_on:	
   389                           ; 1 bytes @ 0x0
   390                           
   391  0070                     ?_Heater_display_on_temperature:	
   392                           ; 1 bytes @ 0x0
   393                           
   394  0070                     ?_Heater_reading_last_ten_temperature_values:	
   395                           ; 1 bytes @ 0x0
   396                           
   397  0070                     ?_Heater_check_if_change_state_to_setup_or_off:	
   398                           ; 1 bytes @ 0x0
   399                           
   400  0070                     ?_Heater_blank_temperature:	
   401                           ; 1 bytes @ 0x0
   402                           
   403  0070                     ?_Heater_change_temperature:	
   404                           ; 1 bytes @ 0x0
   405                           
   406  0070                     ?_ADC_Select_prescaler:	
   407                           ; 1 bytes @ 0x0
   408                           
   409  0070                     ?_ADC_Start_conversion:	
   410                           ; 1 bytes @ 0x0
   411                           
   412  0070                     ?_CPU_sleep:	
   413                           ; 1 bytes @ 0x0
   414                           
   415  0070                     ?_EEPROM_Initialization:	
   416                           ; 1 bytes @ 0x0
   417                           
   418  0070                     ?_GPIO_Enable_Pull_Up_On_PortB:	
   419                           ; 1 bytes @ 0x0
   420                           
   421  0070                     ?_Timer1_enable_overflow_interrupt:	
   422                           ; 1 bytes @ 0x0
   423                           
   424  0070                     ?_Timer1_set_callback_function:	
   425                           ; 1 bytes @ 0x0
   426                           
   427  0070                     ?_External_interrupt_enable:	
   428                           ; 1 bytes @ 0x0
   429                           
   430  0070                     ?_External_interrupt_select_falling_edge:	
   431                           ; 1 bytes @ 0x0
   432                           
   433  0070                     ?_Global_interrupt_enable:	
   434                           ; 1 bytes @ 0x0
   435                           
   436  0070                     ?_Peripherals_interrupt_enable:	
   437                           ; 1 bytes @ 0x0
   438                           
   439  0070                     ?_Peripherals_interrupt_disable:	
   440                           ; 1 bytes @ 0x0
   441                           
   442  0070                     ?_ISR:	
   443                           ; 1 bytes @ 0x0
   444                           
   445  0070                     ?_main:	
   446                           ; 1 bytes @ 0x0
   447                           
   448  0070                     ?_SevenSegment_Initialization:	
   449                           ; 1 bytes @ 0x0
   450                           
   451  0070                     ?_Timer1_Initialization:	
   452                           ; 1 bytes @ 0x0
   453                           
   454  0070                     ?_Timer1_enable:	
   455                           ; 1 bytes @ 0x0
   456                           
   457  0070                     ?_Timer1_disable:	
   458                           ; 1 bytes @ 0x0
   459                           
   460  0070                     ?_Heater_turn_off:	
   461                           ; 1 bytes @ 0x0
   462                           
   463  0070                     ?_TIMER1_ISR:	
   464                           ; 1 bytes @ 0x0
   465                           
   466  0070                     ?_Heater_heating_cooling_process:	
   467                           ; 1 bytes @ 0x0
   468                           
   469  0070                     ?_Heater_display_off_temperature:	
   470                           ; 1 bytes @ 0x0
   471                           
   472  0070                     ?i1_Timer1_write_counter:	
   473                           ; 1 bytes @ 0x0
   474                           
   475  0070                     i1Timer1_write_counter@a_u16init_value_for_timer:	
   476                           ; 1 bytes @ 0x0
   477                           
   478                           
   479                           ; 2 bytes @ 0x0
   480  0070                     	ds	2
   481  0072                     ??i1_Timer1_write_counter:	
   482                           
   483                           ; 1 bytes @ 0x2
   484  0072                     	ds	1
   485  0073                     ??_TIMER1_ISR:	
   486                           
   487                           ; 1 bytes @ 0x3
   488  0073                     	ds	2
   489  0075                     ??_ISR:	
   490                           
   491                           ; 1 bytes @ 0x5
   492  0075                     	ds	5
   493                           
   494                           	psect	cstackBANK0
   495  0020                     __pcstackBANK0:	
   496  0020                     ??_I2C_master_send_start_condition:	
   497  0020                     ?_I2C_master_send_address:	
   498                           ; 1 bytes @ 0x0
   499                           
   500  0020                     ??_I2C_master_send_data:	
   501                           ; 1 bytes @ 0x0
   502                           
   503  0020                     ??_I2C_master_send_stop_condition:	
   504                           ; 1 bytes @ 0x0
   505                           
   506  0020                     ??_I2C_master_send_repeated_start_condition:	
   507                           ; 1 bytes @ 0x0
   508                           
   509  0020                     ??_I2C_master_receive_data:	
   510                           ; 1 bytes @ 0x0
   511                           
   512  0020                     ?_ADC_Initialization:	
   513                           ; 1 bytes @ 0x0
   514                           
   515  0020                     ??_ADC_Select_prescaler:	
   516                           ; 1 bytes @ 0x0
   517                           
   518  0020                     ??_ADC_Start_conversion:	
   519                           ; 1 bytes @ 0x0
   520                           
   521  0020                     ??_CPU_sleep:	
   522                           ; 1 bytes @ 0x0
   523                           
   524  0020                     ?_GPIO_SetPinDirection:	
   525                           ; 1 bytes @ 0x0
   526                           
   527  0020                     ?_GPIO_SetPortDirection:	
   528                           ; 1 bytes @ 0x0
   529                           
   530  0020                     ?_GPIO_WriteOnPin:	
   531                           ; 1 bytes @ 0x0
   532                           
   533  0020                     ?_GPIO_WriteOnPort:	
   534                           ; 1 bytes @ 0x0
   535                           
   536  0020                     ?_GPIO_ReadFromPin:	
   537                           ; 1 bytes @ 0x0
   538                           
   539  0020                     ??_GPIO_Enable_Pull_Up_On_PortB:	
   540                           ; 1 bytes @ 0x0
   541                           
   542  0020                     ??_Timer1_enable_overflow_interrupt:	
   543                           ; 1 bytes @ 0x0
   544                           
   545  0020                     ??_Timer1_set_callback_function:	
   546                           ; 1 bytes @ 0x0
   547                           
   548  0020                     ??_External_interrupt_enable:	
   549                           ; 1 bytes @ 0x0
   550                           
   551  0020                     ??_External_interrupt_select_falling_edge:	
   552                           ; 1 bytes @ 0x0
   553                           
   554  0020                     ??_Global_interrupt_enable:	
   555                           ; 1 bytes @ 0x0
   556                           
   557  0020                     ??_Peripherals_interrupt_enable:	
   558                           ; 1 bytes @ 0x0
   559                           
   560  0020                     ??_Peripherals_interrupt_disable:	
   561                           ; 1 bytes @ 0x0
   562                           
   563  0020                     ??_Timer1_Initialization:	
   564                           ; 1 bytes @ 0x0
   565                           
   566  0020                     ??_Timer1_enable:	
   567                           ; 1 bytes @ 0x0
   568                           
   569  0020                     ??_Timer1_disable:	
   570                           ; 1 bytes @ 0x0
   571                           
   572  0020                     ?_Timer1_write_counter:	
   573                           ; 1 bytes @ 0x0
   574                           
   575  0020                     ?_ADC_Read_value:	
   576                           ; 1 bytes @ 0x0
   577                           
   578  0020                     ?___awdiv:	
   579                           ; 2 bytes @ 0x0
   580                           
   581  0020                     ?___awmod:	
   582                           ; 2 bytes @ 0x0
   583                           
   584  0020                     ?___lwdiv:	
   585                           ; 2 bytes @ 0x0
   586                           
   587  0020                     ?___lldiv:	
   588                           ; 2 bytes @ 0x0
   589                           
   590  0020                     ADC_Initialization@a_ADC_Vref_high_t:	
   591                           ; 4 bytes @ 0x0
   592                           
   593  0020                     GPIO_SetPinDirection@a_u8pin:	
   594                           ; 1 bytes @ 0x0
   595                           
   596  0020                     GPIO_SetPortDirection@a_u8direction:	
   597                           ; 1 bytes @ 0x0
   598                           
   599  0020                     GPIO_WriteOnPin@a_u8pin:	
   600                           ; 1 bytes @ 0x0
   601                           
   602  0020                     GPIO_WriteOnPort@a_u8value:	
   603                           ; 1 bytes @ 0x0
   604                           
   605  0020                     GPIO_ReadFromPin@a_u8pin:	
   606                           ; 1 bytes @ 0x0
   607                           
   608  0020                     I2C_master_send_address@a_I2C_operaton_t:	
   609                           ; 1 bytes @ 0x0
   610                           
   611  0020                     Timer1_write_counter@a_u16init_value_for_timer:	
   612                           ; 1 bytes @ 0x0
   613                           
   614  0020                     ___awdiv@divisor:	
   615                           ; 2 bytes @ 0x0
   616                           
   617  0020                     ___awmod@divisor:	
   618                           ; 2 bytes @ 0x0
   619                           
   620  0020                     ___lwdiv@divisor:	
   621                           ; 2 bytes @ 0x0
   622                           
   623  0020                     ___lldiv@divisor:	
   624                           ; 2 bytes @ 0x0
   625                           
   626                           
   627                           ; 4 bytes @ 0x0
   628  0020                     	ds	1
   629  0021                     ??_I2C_master_send_address:	
   630  0021                     ??_GPIO_SetPortDirection:	
   631                           ; 1 bytes @ 0x1
   632                           
   633  0021                     ??_GPIO_WriteOnPort:	
   634                           ; 1 bytes @ 0x1
   635                           
   636  0021                     ??_GPIO_ReadFromPin:	
   637                           ; 1 bytes @ 0x1
   638                           
   639  0021                     ADC_Initialization@a_ADC_Vref_low_t:	
   640                           ; 1 bytes @ 0x1
   641                           
   642  0021                     GPIO_SetPinDirection@a_u8direction:	
   643                           ; 1 bytes @ 0x1
   644                           
   645  0021                     GPIO_WriteOnPin@a_u8value:	
   646                           ; 1 bytes @ 0x1
   647                           
   648  0021                     I2C_master_send_data@a_I2C_Data:	
   649                           ; 1 bytes @ 0x1
   650                           
   651  0021                     I2C_master_receive_data@a_I2C_ack_status_t:	
   652                           ; 1 bytes @ 0x1
   653                           
   654  0021                     Timer1_set_callback_function@a_function_ptr:	
   655                           ; 1 bytes @ 0x1
   656                           
   657                           
   658                           ; 1 bytes @ 0x1
   659  0021                     	ds	1
   660  0022                     ??_ADC_Initialization:	
   661  0022                     ??_ADC_Read_value:	
   662                           ; 1 bytes @ 0x2
   663                           
   664  0022                     ??_GPIO_SetPinDirection:	
   665                           ; 1 bytes @ 0x2
   666                           
   667  0022                     ??_GPIO_WriteOnPin:	
   668                           ; 1 bytes @ 0x2
   669                           
   670  0022                     ??_Timer1_write_counter:	
   671                           ; 1 bytes @ 0x2
   672                           
   673  0022                     ADC_Select_prescaler@a_ADC_prescaler_t:	
   674                           ; 1 bytes @ 0x2
   675                           
   676  0022                     I2C_master_receive_data@u8_retVal:	
   677                           ; 1 bytes @ 0x2
   678                           
   679  0022                     ___awdiv@dividend:	
   680                           ; 1 bytes @ 0x2
   681                           
   682  0022                     ___awmod@dividend:	
   683                           ; 2 bytes @ 0x2
   684                           
   685  0022                     ___lwdiv@dividend:	
   686                           ; 2 bytes @ 0x2
   687                           
   688                           
   689                           ; 2 bytes @ 0x2
   690  0022                     	ds	1
   691  0023                     GPIO_SetPortDirection@a_u8port:	
   692  0023                     GPIO_ReadFromPin@a_u8port:	
   693                           ; 1 bytes @ 0x3
   694                           
   695                           
   696                           ; 1 bytes @ 0x3
   697  0023                     	ds	1
   698  0024                     ??___awdiv:	
   699  0024                     ??___awmod:	
   700                           ; 1 bytes @ 0x4
   701                           
   702  0024                     ??___lwdiv:	
   703                           ; 1 bytes @ 0x4
   704                           
   705  0024                     ADC_Initialization@a_ADC_channel_t:	
   706                           ; 1 bytes @ 0x4
   707                           
   708  0024                     GPIO_SetPinDirection@a_u8port:	
   709                           ; 1 bytes @ 0x4
   710                           
   711  0024                     GPIO_WriteOnPin@a_u8port:	
   712                           ; 1 bytes @ 0x4
   713                           
   714  0024                     GPIO_WriteOnPort@a_u8port:	
   715                           ; 1 bytes @ 0x4
   716                           
   717  0024                     GPIO_ReadFromPin@retVal:	
   718                           ; 1 bytes @ 0x4
   719                           
   720  0024                     I2C_master_send_address@a_I2C_Address:	
   721                           ; 1 bytes @ 0x4
   722                           
   723  0024                     ___lldiv@dividend:	
   724                           ; 1 bytes @ 0x4
   725                           
   726                           
   727                           ; 4 bytes @ 0x4
   728  0024                     	ds	1
   729  0025                     ?_Check_ON_Push_Button:	
   730  0025                     ?_EEPROM_Save_Byte:	
   731                           ; 1 bytes @ 0x5
   732                           
   733  0025                     ??_SevenSegment_Initialization:	
   734                           ; 1 bytes @ 0x5
   735                           
   736  0025                     Check_ON_Push_Button@a_u8Pin:	
   737                           ; 1 bytes @ 0x5
   738                           
   739  0025                     ___awdiv@counter:	
   740                           ; 1 bytes @ 0x5
   741                           
   742  0025                     ___awmod@counter:	
   743                           ; 1 bytes @ 0x5
   744                           
   745  0025                     EEPROM_Save_Byte@a_u16Location:	
   746                           ; 1 bytes @ 0x5
   747                           
   748  0025                     ___lwdiv@quotient:	
   749                           ; 2 bytes @ 0x5
   750                           
   751                           
   752                           ; 2 bytes @ 0x5
   753  0025                     	ds	1
   754  0026                     ??_Check_ON_Push_Button:	
   755  0026                     ?_SevenSegment_SelectChip:	
   756                           ; 1 bytes @ 0x6
   757                           
   758  0026                     SevenSegment_SelectChip@a_Chip2:	
   759                           ; 1 bytes @ 0x6
   760                           
   761  0026                     ___awdiv@sign:	
   762                           ; 1 bytes @ 0x6
   763                           
   764  0026                     ___awmod@sign:	
   765                           ; 1 bytes @ 0x6
   766                           
   767                           
   768                           ; 1 bytes @ 0x6
   769  0026                     	ds	1
   770  0027                     EEPROM_Save_Byte@a_u8Data:	
   771  0027                     SevenSegment_SelectChip@a_Chip3:	
   772                           ; 1 bytes @ 0x7
   773                           
   774  0027                     ___lwdiv@counter:	
   775                           ; 1 bytes @ 0x7
   776                           
   777  0027                     ___awdiv@quotient:	
   778                           ; 1 bytes @ 0x7
   779                           
   780                           
   781                           ; 2 bytes @ 0x7
   782  0027                     	ds	1
   783  0028                     ??_EEPROM_Save_Byte:	
   784  0028                     ?_EEPROM_Read_Byte:	
   785                           ; 1 bytes @ 0x8
   786                           
   787  0028                     ??_Heater_heating_cooling_process:	
   788                           ; 1 bytes @ 0x8
   789                           
   790  0028                     ??___lldiv:	
   791                           ; 1 bytes @ 0x8
   792                           
   793  0028                     SevenSegment_SelectChip@a_Chip4:	
   794                           ; 1 bytes @ 0x8
   795                           
   796  0028                     Check_ON_Push_Button@retVal_t:	
   797                           ; 1 bytes @ 0x8
   798                           
   799  0028                     EEPROM_Read_Byte@a_u16Location:	
   800                           ; 1 bytes @ 0x8
   801                           
   802                           
   803                           ; 2 bytes @ 0x8
   804  0028                     	ds	1
   805  0029                     ?_SevenSegment_Display:	
   806  0029                     ??_SevenSegment_SelectChip:	
   807                           ; 1 bytes @ 0x9
   808                           
   809  0029                     SevenSegment_Display@a_displayDot:	
   810                           ; 1 bytes @ 0x9
   811                           
   812  0029                     Check_ON_Push_Button@a_u8Port:	
   813                           ; 1 bytes @ 0x9
   814                           
   815  0029                     ADC_Read_value@retVal:	
   816                           ; 1 bytes @ 0x9
   817                           
   818  0029                     ___lldiv@quotient:	
   819                           ; 2 bytes @ 0x9
   820                           
   821                           
   822                           ; 4 bytes @ 0x9
   823  0029                     	ds	1
   824  002A                     ??_EEPROM_Read_Byte:	
   825  002A                     ??_SevenSegment_Display:	
   826                           ; 1 bytes @ 0xA
   827                           
   828  002A                     SevenSegment_SelectChip@a_Chip1:	
   829                           ; 1 bytes @ 0xA
   830                           
   831                           
   832                           ; 1 bytes @ 0xA
   833  002A                     	ds	1
   834  002B                     ??_Heater_reading_last_ten_temperature_values:	
   835  002B                     ??_Heater_turn_off:	
   836                           ; 1 bytes @ 0xB
   837                           
   838  002B                     ??_Heater_display_off_temperature:	
   839                           ; 1 bytes @ 0xB
   840                           
   841  002B                     EEPROM_Read_Byte@u8_retVal:	
   842                           ; 1 bytes @ 0xB
   843                           
   844                           
   845                           ; 1 bytes @ 0xB
   846  002B                     	ds	1
   847  002C                     ??_Heater_turn_on:	
   848  002C                     Heater_turn_off@counter:	
   849                           ; 1 bytes @ 0xC
   850                           
   851                           
   852                           ; 1 bytes @ 0xC
   853  002C                     	ds	1
   854  002D                     ??_Heater_check_if_change_state_to_setup_or_off:	
   855  002D                     ??_Heater_change_temperature:	
   856                           ; 1 bytes @ 0xD
   857                           
   858  002D                     ___lldiv@counter:	
   859                           ; 1 bytes @ 0xD
   860                           
   861                           
   862                           ; 1 bytes @ 0xD
   863  002D                     	ds	1
   864  002E                     ?_I2C_Master_Initialization:	
   865  002E                     I2C_Master_Initialization@a_I2C_baud_rate_t:	
   866                           ; 1 bytes @ 0xE
   867                           
   868  002E                     _Heater_turn_on$521:	
   869                           ; 2 bytes @ 0xE
   870                           
   871  002E                     SevenSegment_Display@u8numberRepresentation:	
   872                           ; 2 bytes @ 0xE
   873                           
   874                           
   875                           ; 10 bytes @ 0xE
   876  002E                     	ds	1
   877  002F                     _Heater_reading_last_ten_temperature_values$532:	
   878                           
   879                           ; 2 bytes @ 0xF
   880  002F                     	ds	1
   881  0030                     ??_I2C_Master_Initialization:	
   882  0030                     Heater_turn_on@u8Saved_temperature_in_EEPROM:	
   883                           ; 1 bytes @ 0x10
   884                           
   885                           
   886                           ; 1 bytes @ 0x10
   887  0030                     	ds	1
   888  0031                     Heater_reading_last_ten_temperature_values@g_u8Current_reading_temperature:	
   889                           
   890                           ; 1 bytes @ 0x11
   891  0031                     	ds	4
   892  0035                     I2C_Master_Initialization@a_I2C_master_mode_t:	
   893                           
   894                           ; 1 bytes @ 0x15
   895  0035                     	ds	1
   896  0036                     ??_Heater_Initialization:	
   897  0036                     ??_EEPROM_Initialization:	
   898                           ; 1 bytes @ 0x16
   899                           
   900                           
   901                           ; 1 bytes @ 0x16
   902  0036                     	ds	2
   903  0038                     SevenSegment_Display@a_u8displayNumber:	
   904                           
   905                           ; 1 bytes @ 0x18
   906  0038                     	ds	1
   907  0039                     ??_Heater_display_on_temperature:	
   908                           
   909                           ; 1 bytes @ 0x19
   910  0039                     	ds	2
   911  003B                     ??_Heater_blank_temperature:	
   912  003B                     ??_main:	
   913                           ; 1 bytes @ 0x1B
   914                           
   915                           
   916                           ; 1 bytes @ 0x1B
   917  003B                     	ds	2
   918                           
   919                           	psect	maintext
   920  0C4C                     __pmaintext:	
   921 ;;
   922 ;;Main: autosize = 0, tempsize = 2, incstack = 0, save=0
   923 ;;
   924 ;; *************** function _main *****************
   925 ;; Defined at:
   926 ;;		line 19 in file "main.c"
   927 ;; Parameters:    Size  Location     Type
   928 ;;		None
   929 ;; Auto vars:     Size  Location     Type
   930 ;;		None
   931 ;; Return value:  Size  Location     Type
   932 ;;                  1    wreg      void 
   933 ;; Registers used:
   934 ;;		wreg, fsr0l, fsr0h, status,2, status,0, pclath, cstack
   935 ;; Tracked objects:
   936 ;;		On entry : B00/0
   937 ;;		On exit  : 0/0
   938 ;;		Unchanged: 0/0
   939 ;; Data sizes:     COMMON   BANK0   BANK1   BANK3   BANK2
   940 ;;      Params:         0       0       0       0       0
   941 ;;      Locals:         0       0       0       0       0
   942 ;;      Temps:          0       2       0       0       0
   943 ;;      Totals:         0       2       0       0       0
   944 ;;Total ram usage:        2 bytes
   945 ;; Hardware stack levels required when called:    7
   946 ;; This function calls:
   947 ;;		_CPU_sleep
   948 ;;		_Check_ON_Push_Button
   949 ;;		_Heater_Initialization
   950 ;;		_Heater_blank_temperature
   951 ;;		_Heater_change_temperature
   952 ;;		_Heater_check_if_change_state_to_setup_or_off
   953 ;;		_Heater_display_on_temperature
   954 ;;		_Heater_reading_last_ten_temperature_values
   955 ;;		_Heater_turn_on
   956 ;; This function is called by:
   957 ;;		Startup code after reset
   958 ;; This function uses a non-reentrant model
   959 ;;
   960                           
   961                           
   962                           ;psect for function _main
   963  0C4C                     _main:	
   964  0C4C                     l3789:	
   965                           ;incstack = 0
   966                           ; Regs used in _main: [wreg-fsr0h+status,2+status,0+pclath+cstack]
   967                           
   968                           
   969                           ;main.c: 22:     Heater_Initialization();
   970  0C4C  120A  118A  2357  120A  158A  	fcall	_Heater_Initialization
   971  0C51  2C85               	goto	l3803
   972  0C52                     l3791:	
   973                           
   974                           ;main.c: 30:                 if(Check_ON_Push_Button(1u , 0u) == PUSH_BUTTON_IS_PRESSED)
   975  0C52  01A5               	clrf	Check_ON_Push_Button@a_u8Pin
   976  0C53  3001               	movlw	1
   977  0C54  120A  158A  23B7  120A  158A  	fcall	_Check_ON_Push_Button
   978  0C59  3A00               	xorlw	0
   979  0C5A  1D03               	skipz
   980  0C5B  2C5D               	goto	u4311
   981  0C5C  2C5E               	goto	u4310
   982  0C5D                     u4311:	
   983  0C5D  2C64               	goto	l3795
   984  0C5E                     u4310:	
   985  0C5E                     l3793:	
   986                           
   987                           ;main.c: 31:                 {;main.c: 33:                     Heater_turn_on();
   988  0C5E  120A  158A  22E6  120A  158A  	fcall	_Heater_turn_on
   989                           
   990                           ;main.c: 34:                 }
   991  0C63  2C85               	goto	l3803
   992  0C64                     l3795:	
   993                           
   994                           ;main.c: 36:                 {;main.c: 38:                     CPU_sleep();
   995  0C64  120A  158A  2029  120A  158A  	fcall	_CPU_sleep
   996  0C69  2C85               	goto	l3803
   997  0C6A                     l3797:	
   998                           
   999                           ;main.c: 43:                 Heater_display_on_temperature();
  1000  0C6A  120A  118A  2696  120A  158A  	fcall	_Heater_display_on_temperature
  1001                           
  1002                           ;main.c: 45:                 Heater_reading_last_ten_temperature_values();
  1003  0C6F  120A  118A  260C  120A  158A  	fcall	_Heater_reading_last_ten_temperature_values
  1004                           
  1005                           ;main.c: 47:                 Heater_check_if_change_state_to_setup_or_off();
  1006  0C74  120A  158A  265E  120A  158A  	fcall	_Heater_check_if_change_state_to_setup_or_off
  1007                           
  1008                           ;main.c: 48:                 break;
  1009  0C79  2C85               	goto	l3803
  1010  0C7A                     l3799:	
  1011                           
  1012                           ;main.c: 51:                 Heater_blank_temperature();
  1013  0C7A  120A  158A  20CA  120A  158A  	fcall	_Heater_blank_temperature
  1014                           
  1015                           ;main.c: 53:                 Heater_change_temperature();
  1016  0C7F  120A  158A  24F0  120A  158A  	fcall	_Heater_change_temperature
  1017                           
  1018                           ;main.c: 54:                 break;
  1019  0C84  2C85               	goto	l3803
  1020  0C85                     l463:	
  1021  0C85                     l3803:	
  1022  0C85  1283               	bcf	3,5	;RP0=0, select bank0
  1023  0C86  1303               	bcf	3,6	;RP1=0, select bank0
  1024  0C87  084F               	movf	_g_Heater_state_t,w
  1025  0C88  00BB               	movwf	??_main
  1026  0C89  01BC               	clrf	??_main+1
  1027                           
  1028                           ; Switch on 2 bytes has been partitioned into a top level switch of size 1, and 1 sub-sw
      +                          itches
  1029                           ; Switch size 1, requested type "simple"
  1030                           ; Number of cases is 1, Range of values is 0 to 0
  1031                           ; switch strategies available:
  1032                           ; Name         Instructions Cycles
  1033                           ; simple_byte            4     3 (average)
  1034                           ; direct_byte           11     8 (fixed)
  1035                           ; jumptable            260     6 (fixed)
  1036                           ;	Chosen strategy is simple_byte
  1037  0C8A  083C               	movf	??_main+1,w
  1038  0C8B  3A00               	xorlw	0	; case 0
  1039  0C8C  1903               	skipnz
  1040  0C8D  2C8F               	goto	l4071
  1041  0C8E  2C85               	goto	l463
  1042  0C8F                     l4071:	
  1043                           
  1044                           ; Switch size 1, requested type "simple"
  1045                           ; Number of cases is 3, Range of values is 0 to 2
  1046                           ; switch strategies available:
  1047                           ; Name         Instructions Cycles
  1048                           ; simple_byte           10     6 (average)
  1049                           ; direct_byte           17     8 (fixed)
  1050                           ; jumptable            260     6 (fixed)
  1051                           ;	Chosen strategy is simple_byte
  1052  0C8F  083B               	movf	??_main,w
  1053  0C90  3A00               	xorlw	0	; case 0
  1054  0C91  1903               	skipnz
  1055  0C92  2C52               	goto	l3791
  1056  0C93  3A01               	xorlw	1	; case 1
  1057  0C94  1903               	skipnz
  1058  0C95  2C6A               	goto	l3797
  1059  0C96  3A03               	xorlw	3	; case 2
  1060  0C97  1903               	skipnz
  1061  0C98  2C7A               	goto	l3799
  1062  0C99  2C85               	goto	l463
  1063  0C9A  120A  118A  2812   	ljmp	start
  1064  0C9D                     __end_of_main:	
  1065                           
  1066                           	psect	text1
  1067  0AE6                     __ptext1:	
  1068 ;; *************** function _Heater_turn_on *****************
  1069 ;; Defined at:
  1070 ;;		line 331 in file "heater.c"
  1071 ;; Parameters:    Size  Location     Type
  1072 ;;		None
  1073 ;; Auto vars:     Size  Location     Type
  1074 ;;  u8Saved_temp    1   16[BANK0 ] unsigned char 
  1075 ;; Return value:  Size  Location     Type
  1076 ;;                  1    wreg      void 
  1077 ;; Registers used:
  1078 ;;		wreg, status,2, status,0, pclath, cstack
  1079 ;; Tracked objects:
  1080 ;;		On entry : 0/0
  1081 ;;		On exit  : 0/0
  1082 ;;		Unchanged: 0/0
  1083 ;; Data sizes:     COMMON   BANK0   BANK1   BANK3   BANK2
  1084 ;;      Params:         0       0       0       0       0
  1085 ;;      Locals:         0       3       0       0       0
  1086 ;;      Temps:          0       2       0       0       0
  1087 ;;      Totals:         0       5       0       0       0
  1088 ;;Total ram usage:        5 bytes
  1089 ;; Hardware stack levels used:    1
  1090 ;; Hardware stack levels required when called:    6
  1091 ;; This function calls:
  1092 ;;		_EEPROM_Read_Byte
  1093 ;;		_Peripherals_interrupt_enable
  1094 ;;		_Timer1_enable
  1095 ;;		_Timer1_write_counter
  1096 ;; This function is called by:
  1097 ;;		_main
  1098 ;; This function uses a non-reentrant model
  1099 ;;
  1100                           
  1101                           
  1102                           ;psect for function _Heater_turn_on
  1103  0AE6                     _Heater_turn_on:	
  1104  0AE6                     l3579:	
  1105                           ;incstack = 0
  1106                           ; Regs used in _Heater_turn_on: [wreg+status,2+status,0+pclath+cstack]
  1107                           
  1108                           
  1109                           ;heater.c: 334:     uint8 u8Saved_temperature_in_EEPROM = EEPROM_Read_Byte(0u);
  1110  0AE6  3000               	movlw	0
  1111  0AE7  1283               	bcf	3,5	;RP0=0, select bank0
  1112  0AE8  1303               	bcf	3,6	;RP1=0, select bank0
  1113  0AE9  00A8               	movwf	EEPROM_Read_Byte@a_u16Location
  1114  0AEA  00A9               	movwf	EEPROM_Read_Byte@a_u16Location+1
  1115  0AEB  120A  158A  2371  120A  158A  	fcall	_EEPROM_Read_Byte
  1116  0AF0  1283               	bcf	3,5	;RP0=0, select bank0
  1117  0AF1  1303               	bcf	3,6	;RP1=0, select bank0
  1118  0AF2  00AC               	movwf	??_Heater_turn_on
  1119  0AF3  082C               	movf	??_Heater_turn_on,w
  1120  0AF4  00B0               	movwf	Heater_turn_on@u8Saved_temperature_in_EEPROM
  1121  0AF5                     l3581:	
  1122                           
  1123                           ;heater.c: 336:     g_u8Heater_wanted_temperature = (u8Saved_temperature_in_EEPROM >= 35
      +                           &&
  1124  0AF5  3023               	movlw	35
  1125  0AF6  0230               	subwf	Heater_turn_on@u8Saved_temperature_in_EEPROM,w
  1126  0AF7  1C03               	skipc
  1127  0AF8  2AFA               	goto	u4011
  1128  0AF9  2AFB               	goto	u4010
  1129  0AFA                     u4011:	
  1130  0AFA  2B01               	goto	l3585
  1131  0AFB                     u4010:	
  1132  0AFB                     l3583:	
  1133  0AFB  304C               	movlw	76
  1134  0AFC  0230               	subwf	Heater_turn_on@u8Saved_temperature_in_EEPROM,w
  1135  0AFD  1C03               	skipc
  1136  0AFE  2B00               	goto	u4021
  1137  0AFF  2B01               	goto	u4020
  1138  0B00                     u4021:	
  1139  0B00  2B06               	goto	l3587
  1140  0B01                     u4020:	
  1141  0B01                     l3585:	
  1142  0B01  303C               	movlw	60
  1143  0B02  00AE               	movwf	_Heater_turn_on$521
  1144  0B03  3000               	movlw	0
  1145  0B04  00AF               	movwf	_Heater_turn_on$521+1
  1146  0B05  2B0D               	goto	l659
  1147  0B06                     l3587:	
  1148  0B06  0830               	movf	Heater_turn_on@u8Saved_temperature_in_EEPROM,w
  1149  0B07  00AC               	movwf	??_Heater_turn_on
  1150  0B08  01AD               	clrf	??_Heater_turn_on+1
  1151  0B09  082C               	movf	??_Heater_turn_on,w
  1152  0B0A  00AE               	movwf	_Heater_turn_on$521
  1153  0B0B  082D               	movf	??_Heater_turn_on+1,w
  1154  0B0C  00AF               	movwf	_Heater_turn_on$521+1
  1155  0B0D                     l659:	
  1156  0B0D  082E               	movf	_Heater_turn_on$521,w
  1157  0B0E  00AC               	movwf	??_Heater_turn_on
  1158  0B0F  082C               	movf	??_Heater_turn_on,w
  1159  0B10  00DE               	movwf	_g_u8Heater_wanted_temperature
  1160  0B11                     l3589:	
  1161                           
  1162                           ;heater.c: 340:     Peripherals_interrupt_enable();
  1163  0B11  120A  158A  202F  120A  158A  	fcall	_Peripherals_interrupt_enable
  1164                           
  1165                           ;heater.c: 342:     Timer1_write_counter(15535);
  1166  0B16  30AF               	movlw	175
  1167  0B17  1283               	bcf	3,5	;RP0=0, select bank0
  1168  0B18  1303               	bcf	3,6	;RP1=0, select bank0
  1169  0B19  00A0               	movwf	Timer1_write_counter@a_u16init_value_for_timer
  1170  0B1A  303C               	movlw	60
  1171  0B1B  00A1               	movwf	Timer1_write_counter@a_u16init_value_for_timer+1
  1172  0B1C  120A  158A  20A8  120A  158A  	fcall	_Timer1_write_counter
  1173  0B21                     l3591:	
  1174                           
  1175                           ;heater.c: 344:     Timer1_enable();
  1176  0B21  120A  158A  2035  120A  158A  	fcall	_Timer1_enable
  1177  0B26                     l3593:	
  1178                           
  1179                           ;heater.c: 346:     g_Heater_state_t = HEATER_ON_STATE;
  1180  0B26  1283               	bcf	3,5	;RP0=0, select bank0
  1181  0B27  1303               	bcf	3,6	;RP1=0, select bank0
  1182  0B28  01CF               	clrf	_g_Heater_state_t
  1183  0B29  0ACF               	incf	_g_Heater_state_t,f
  1184  0B2A                     l662:	
  1185  0B2A  0008               	return
  1186  0B2B                     __end_of_Heater_turn_on:	
  1187                           
  1188                           	psect	text2
  1189  08A8                     __ptext2:	
  1190 ;; *************** function _Timer1_write_counter *****************
  1191 ;; Defined at:
  1192 ;;		line 238 in file "timers.c"
  1193 ;; Parameters:    Size  Location     Type
  1194 ;;  a_u16init_va    2    0[BANK0 ] unsigned short 
  1195 ;; Auto vars:     Size  Location     Type
  1196 ;;		None
  1197 ;; Return value:  Size  Location     Type
  1198 ;;                  1    wreg      void 
  1199 ;; Registers used:
  1200 ;;		wreg, status,2, status,0
  1201 ;; Tracked objects:
  1202 ;;		On entry : 0/0
  1203 ;;		On exit  : 0/0
  1204 ;;		Unchanged: 0/0
  1205 ;; Data sizes:     COMMON   BANK0   BANK1   BANK3   BANK2
  1206 ;;      Params:         0       2       0       0       0
  1207 ;;      Locals:         0       0       0       0       0
  1208 ;;      Temps:          0       1       0       0       0
  1209 ;;      Totals:         0       3       0       0       0
  1210 ;;Total ram usage:        3 bytes
  1211 ;; Hardware stack levels used:    1
  1212 ;; Hardware stack levels required when called:    3
  1213 ;; This function calls:
  1214 ;;		Nothing
  1215 ;; This function is called by:
  1216 ;;		_Heater_turn_on
  1217 ;; This function uses a non-reentrant model
  1218 ;;
  1219                           
  1220                           
  1221                           ;psect for function _Timer1_write_counter
  1222  08A8                     _Timer1_write_counter:	
  1223  08A8                     l3471:	
  1224                           ;incstack = 0
  1225                           ; Regs used in _Timer1_write_counter: [wreg+status,2+status,0]
  1226                           
  1227                           
  1228                           ;timers.c: 238: void Timer1_write_counter(uint16 a_u16init_value_for_timer);timers.c: 23
      +                          9: {;timers.c: 241:     *(volatile uint8*)0x10 &= ~(1 << 0u);
  1229  08A8  30FE               	movlw	254
  1230  08A9  1283               	bcf	3,5	;RP0=0, select bank0
  1231  08AA  1303               	bcf	3,6	;RP1=0, select bank0
  1232  08AB  00A2               	movwf	??_Timer1_write_counter
  1233  08AC  0822               	movf	??_Timer1_write_counter,w
  1234  08AD  0590               	andwf	16,f	;volatile
  1235  08AE                     l3473:	
  1236                           
  1237                           ;timers.c: 243:     *(volatile uint8*)0x0F = a_u16init_value_for_timer >> 8;
  1238  08AE  0821               	movf	Timer1_write_counter@a_u16init_value_for_timer+1,w
  1239  08AF  00A2               	movwf	??_Timer1_write_counter
  1240  08B0  0822               	movf	??_Timer1_write_counter,w
  1241  08B1  008F               	movwf	15	;volatile
  1242  08B2                     l3475:	
  1243                           
  1244                           ;timers.c: 245:     *(volatile uint8*)0x0E = (uint8)a_u16init_value_for_timer;
  1245  08B2  0820               	movf	Timer1_write_counter@a_u16init_value_for_timer,w
  1246  08B3  00A2               	movwf	??_Timer1_write_counter
  1247  08B4  0822               	movf	??_Timer1_write_counter,w
  1248  08B5  008E               	movwf	14	;volatile
  1249  08B6                     l3477:	
  1250                           
  1251                           ;timers.c: 247:     *(volatile uint8*)0x10 |= 1 << 0u;
  1252  08B6  1410               	bsf	16,0	;volatile
  1253  08B7                     l534:	
  1254  08B7  0008               	return
  1255  08B8                     __end_of_Timer1_write_counter:	
  1256                           
  1257                           	psect	text3
  1258  0835                     __ptext3:	
  1259 ;; *************** function _Timer1_enable *****************
  1260 ;; Defined at:
  1261 ;;		line 180 in file "timers.c"
  1262 ;; Parameters:    Size  Location     Type
  1263 ;;		None
  1264 ;; Auto vars:     Size  Location     Type
  1265 ;;		None
  1266 ;; Return value:  Size  Location     Type
  1267 ;;                  1    wreg      void 
  1268 ;; Registers used:
  1269 ;;		None
  1270 ;; Tracked objects:
  1271 ;;		On entry : 0/0
  1272 ;;		On exit  : 0/0
  1273 ;;		Unchanged: 0/0
  1274 ;; Data sizes:     COMMON   BANK0   BANK1   BANK3   BANK2
  1275 ;;      Params:         0       0       0       0       0
  1276 ;;      Locals:         0       0       0       0       0
  1277 ;;      Temps:          0       0       0       0       0
  1278 ;;      Totals:         0       0       0       0       0
  1279 ;;Total ram usage:        0 bytes
  1280 ;; Hardware stack levels used:    1
  1281 ;; Hardware stack levels required when called:    3
  1282 ;; This function calls:
  1283 ;;		Nothing
  1284 ;; This function is called by:
  1285 ;;		_Heater_turn_on
  1286 ;; This function uses a non-reentrant model
  1287 ;;
  1288                           
  1289                           
  1290                           ;psect for function _Timer1_enable
  1291  0835                     _Timer1_enable:	
  1292  0835                     l3469:	
  1293                           ;incstack = 0
  1294                           ; Regs used in _Timer1_enable: []
  1295                           
  1296                           
  1297                           ;timers.c: 182:     *(volatile uint8*)0x10 |= 1 << 0u;
  1298  0835  1283               	bcf	3,5	;RP0=0, select bank0
  1299  0836  1303               	bcf	3,6	;RP1=0, select bank0
  1300  0837  1410               	bsf	16,0	;volatile
  1301  0838                     l525:	
  1302  0838  0008               	return
  1303  0839                     __end_of_Timer1_enable:	
  1304                           
  1305                           	psect	text4
  1306  082F                     __ptext4:	
  1307 ;; *************** function _Peripherals_interrupt_enable *****************
  1308 ;; Defined at:
  1309 ;;		line 950 in file "interrupt.c"
  1310 ;; Parameters:    Size  Location     Type
  1311 ;;		None
  1312 ;; Auto vars:     Size  Location     Type
  1313 ;;		None
  1314 ;; Return value:  Size  Location     Type
  1315 ;;                  1    wreg      void 
  1316 ;; Registers used:
  1317 ;;		None
  1318 ;; Tracked objects:
  1319 ;;		On entry : 0/0
  1320 ;;		On exit  : 0/0
  1321 ;;		Unchanged: 0/0
  1322 ;; Data sizes:     COMMON   BANK0   BANK1   BANK3   BANK2
  1323 ;;      Params:         0       0       0       0       0
  1324 ;;      Locals:         0       0       0       0       0
  1325 ;;      Temps:          0       0       0       0       0
  1326 ;;      Totals:         0       0       0       0       0
  1327 ;;Total ram usage:        0 bytes
  1328 ;; Hardware stack levels used:    1
  1329 ;; Hardware stack levels required when called:    3
  1330 ;; This function calls:
  1331 ;;		Nothing
  1332 ;; This function is called by:
  1333 ;;		_Heater_turn_on
  1334 ;; This function uses a non-reentrant model
  1335 ;;
  1336                           
  1337                           
  1338                           ;psect for function _Peripherals_interrupt_enable
  1339  082F                     _Peripherals_interrupt_enable:	
  1340  082F                     l3407:	
  1341                           ;incstack = 0
  1342                           ; Regs used in _Peripherals_interrupt_enable: []
  1343                           
  1344                           
  1345                           ;interrupt.c: 952:     *(volatile uint8*)0x0B |= 1 << 6u;
  1346  082F  170B               	bsf	11,6	;volatile
  1347  0830                     l421:	
  1348  0830  0008               	return
  1349  0831                     __end_of_Peripherals_interrupt_enable:	
  1350                           
  1351                           	psect	text5
  1352  0B71                     __ptext5:	
  1353 ;; *************** function _EEPROM_Read_Byte *****************
  1354 ;; Defined at:
  1355 ;;		line 79 in file "EEPROM24c04.c"
  1356 ;; Parameters:    Size  Location     Type
  1357 ;;  a_u16Locatio    2    8[BANK0 ] unsigned short 
  1358 ;; Auto vars:     Size  Location     Type
  1359 ;;  u8_retVal       1   11[BANK0 ] unsigned char 
  1360 ;; Return value:  Size  Location     Type
  1361 ;;                  1    wreg      unsigned char 
  1362 ;; Registers used:
  1363 ;;		wreg, status,2, status,0, pclath, cstack
  1364 ;; Tracked objects:
  1365 ;;		On entry : 0/0
  1366 ;;		On exit  : 0/0
  1367 ;;		Unchanged: 0/0
  1368 ;; Data sizes:     COMMON   BANK0   BANK1   BANK3   BANK2
  1369 ;;      Params:         0       2       0       0       0
  1370 ;;      Locals:         0       1       0       0       0
  1371 ;;      Temps:          0       1       0       0       0
  1372 ;;      Totals:         0       4       0       0       0
  1373 ;;Total ram usage:        4 bytes
  1374 ;; Hardware stack levels used:    1
  1375 ;; Hardware stack levels required when called:    5
  1376 ;; This function calls:
  1377 ;;		_EEPROM_Save_Byte
  1378 ;;		_I2C_master_receive_data
  1379 ;;		_I2C_master_send_address
  1380 ;;		_I2C_master_send_data
  1381 ;;		_I2C_master_send_repeated_start_condition
  1382 ;;		_I2C_master_send_start_condition
  1383 ;;		_I2C_master_send_stop_condition
  1384 ;; This function is called by:
  1385 ;;		_Heater_turn_on
  1386 ;; This function uses a non-reentrant model
  1387 ;;
  1388                           
  1389                           
  1390                           ;psect for function _EEPROM_Read_Byte
  1391  0B71                     _EEPROM_Read_Byte:	
  1392  0B71                     l3389:	
  1393                           ;incstack = 0
  1394                           ; Regs used in _EEPROM_Read_Byte: [wreg+status,2+status,0+pclath+cstack]
  1395                           
  1396                           
  1397                           ;EEPROM24c04.c: 79: uint8 EEPROM_Read_Byte(uint16 a_u16Location);EEPROM24c04.c: 80: {;EE
      +                          PROM24c04.c: 82:     uint8 u8_retVal;;EEPROM24c04.c: 84:     I2C_master_send_start_condi
      +                          tion();
  1398  0B71  120A  158A  2188  120A  158A  	fcall	_I2C_master_send_start_condition
  1399                           
  1400                           ;EEPROM24c04.c: 86:     I2C_master_send_address((0x50 | ((a_u16Location >> 8) & 0x0001))
      +                          , I2C_WRITE_OPERATION);
  1401  0B76  1283               	bcf	3,5	;RP0=0, select bank0
  1402  0B77  1303               	bcf	3,6	;RP1=0, select bank0
  1403  0B78  01A0               	clrf	I2C_master_send_address@a_I2C_operaton_t
  1404  0B79  0829               	movf	EEPROM_Read_Byte@a_u16Location+1,w
  1405  0B7A  3901               	andlw	1
  1406  0B7B  3850               	iorlw	80
  1407  0B7C  120A  158A  221C  120A  158A  	fcall	_I2C_master_send_address
  1408                           
  1409                           ;EEPROM24c04.c: 88:     I2C_master_send_data((uint8)(a_u16Location & 0x00FF));
  1410  0B81  1283               	bcf	3,5	;RP0=0, select bank0
  1411  0B82  1303               	bcf	3,6	;RP1=0, select bank0
  1412  0B83  0828               	movf	EEPROM_Read_Byte@a_u16Location,w
  1413  0B84  120A  158A  215B  120A  158A  	fcall	_I2C_master_send_data
  1414                           
  1415                           ;EEPROM24c04.c: 90:     I2C_master_send_repeated_start_condition();
  1416  0B89  120A  158A  2111  120A  158A  	fcall	_I2C_master_send_repeated_start_condition
  1417                           
  1418                           ;EEPROM24c04.c: 92:     I2C_master_send_address(0x50 , I2C_READ_OPERATION);
  1419  0B8E  1283               	bcf	3,5	;RP0=0, select bank0
  1420  0B8F  1303               	bcf	3,6	;RP1=0, select bank0
  1421  0B90  01A0               	clrf	I2C_master_send_address@a_I2C_operaton_t
  1422  0B91  0AA0               	incf	I2C_master_send_address@a_I2C_operaton_t,f
  1423  0B92  3050               	movlw	80
  1424  0B93  120A  158A  221C  120A  158A  	fcall	_I2C_master_send_address
  1425                           
  1426                           ;EEPROM24c04.c: 94:     u8_retVal = I2C_master_receive_data(I2C_SEND_NOT_ACK);
  1427  0B98  3001               	movlw	1
  1428  0B99  120A  158A  259F  120A  158A  	fcall	_I2C_master_receive_data
  1429  0B9E  1283               	bcf	3,5	;RP0=0, select bank0
  1430  0B9F  1303               	bcf	3,6	;RP1=0, select bank0
  1431  0BA0  00AA               	movwf	??_EEPROM_Read_Byte
  1432  0BA1  082A               	movf	??_EEPROM_Read_Byte,w
  1433  0BA2  00AB               	movwf	EEPROM_Read_Byte@u8_retVal
  1434                           
  1435                           ;EEPROM24c04.c: 96:     I2C_master_send_stop_condition();
  1436  0BA3  120A  158A  20ED  120A  158A  	fcall	_I2C_master_send_stop_condition
  1437                           
  1438                           ;EEPROM24c04.c: 98:     EEPROM_Save_Byte(0,0);
  1439  0BA8  3000               	movlw	0
  1440  0BA9  1283               	bcf	3,5	;RP0=0, select bank0
  1441  0BAA  1303               	bcf	3,6	;RP1=0, select bank0
  1442  0BAB  00A5               	movwf	EEPROM_Save_Byte@a_u16Location
  1443  0BAC  00A6               	movwf	EEPROM_Save_Byte@a_u16Location+1
  1444  0BAD  01A7               	clrf	EEPROM_Save_Byte@a_u8Data
  1445  0BAE  120A  158A  2135  120A  158A  	fcall	_EEPROM_Save_Byte
  1446  0BB3                     l3391:	
  1447                           
  1448                           ;EEPROM24c04.c: 100:     return u8_retVal;
  1449  0BB3  1283               	bcf	3,5	;RP0=0, select bank0
  1450  0BB4  1303               	bcf	3,6	;RP1=0, select bank0
  1451  0BB5  082B               	movf	EEPROM_Read_Byte@u8_retVal,w
  1452  0BB6                     l99:	
  1453  0BB6  0008               	return
  1454  0BB7                     __end_of_EEPROM_Read_Byte:	
  1455                           
  1456                           	psect	text6
  1457  0911                     __ptext6:	
  1458 ;; *************** function _I2C_master_send_repeated_start_condition *****************
  1459 ;; Defined at:
  1460 ;;		line 143 in file "I2C.c"
  1461 ;; Parameters:    Size  Location     Type
  1462 ;;		None
  1463 ;; Auto vars:     Size  Location     Type
  1464 ;;		None
  1465 ;; Return value:  Size  Location     Type
  1466 ;;                  1    wreg      void 
  1467 ;; Registers used:
  1468 ;;		wreg, status,2, status,0
  1469 ;; Tracked objects:
  1470 ;;		On entry : 0/0
  1471 ;;		On exit  : 0/0
  1472 ;;		Unchanged: 0/0
  1473 ;; Data sizes:     COMMON   BANK0   BANK1   BANK3   BANK2
  1474 ;;      Params:         0       0       0       0       0
  1475 ;;      Locals:         0       0       0       0       0
  1476 ;;      Temps:          0       1       0       0       0
  1477 ;;      Totals:         0       1       0       0       0
  1478 ;;Total ram usage:        1 bytes
  1479 ;; Hardware stack levels used:    1
  1480 ;; Hardware stack levels required when called:    3
  1481 ;; This function calls:
  1482 ;;		Nothing
  1483 ;; This function is called by:
  1484 ;;		_EEPROM_Read_Byte
  1485 ;;		_EEPROM_Read_Array
  1486 ;; This function uses a non-reentrant model
  1487 ;;
  1488                           
  1489                           
  1490                           ;psect for function _I2C_master_send_repeated_start_condition
  1491  0911                     _I2C_master_send_repeated_start_condition:	
  1492  0911                     l2989:	
  1493                           ;incstack = 0
  1494                           ; Regs used in _I2C_master_send_repeated_start_condition: [wreg+status,2+status,0]
  1495                           
  1496                           
  1497                           ;I2C.c: 146:     *(volatile uint8*)0x91 |= 1 << 1u;
  1498  0911  1683               	bsf	3,5	;RP0=1, select bank1
  1499  0912  1303               	bcf	3,6	;RP1=0, select bank1
  1500  0913  1491               	bsf	17,1	;volatile
  1501  0914                     l2991:	
  1502                           ;I2C.c: 148:     while(((*(volatile uint8*)0x91 >> 1u) & 0x01));
  1503                           
  1504  0914  1683               	bsf	3,5	;RP0=1, select bank1
  1505  0915  1303               	bcf	3,6	;RP1=0, select bank1
  1506  0916  0811               	movf	17,w	;volatile
  1507  0917  1283               	bcf	3,5	;RP0=0, select bank0
  1508  0918  1303               	bcf	3,6	;RP1=0, select bank0
  1509  0919  00A0               	movwf	??_I2C_master_send_repeated_start_condition
  1510  091A  3001               	movlw	1
  1511  091B                     u3045:	
  1512  091B  1003               	clrc
  1513  091C  0CA0               	rrf	??_I2C_master_send_repeated_start_condition,f
  1514  091D  3EFF               	addlw	-1
  1515  091E  1D03               	skipz
  1516  091F  291B               	goto	u3045
  1517  0920  1820               	btfsc	??_I2C_master_send_repeated_start_condition,0
  1518  0921  2923               	goto	u3051
  1519  0922  2924               	goto	u3050
  1520  0923                     u3051:	
  1521  0923  2914               	goto	l2991
  1522  0924                     u3050:	
  1523  0924                     l2993:	
  1524                           
  1525                           ;I2C.c: 150:     if(((*(volatile uint8*)0x14 >> 7u) & 0x01))
  1526  0924  0814               	movf	20,w	;volatile
  1527  0925  00A0               	movwf	??_I2C_master_send_repeated_start_condition
  1528  0926  3007               	movlw	7
  1529  0927                     u3065:	
  1530  0927  1003               	clrc
  1531  0928  0CA0               	rrf	??_I2C_master_send_repeated_start_condition,f
  1532  0929  3EFF               	addlw	-1
  1533  092A  1D03               	skipz
  1534  092B  2927               	goto	u3065
  1535  092C  1C20               	btfss	??_I2C_master_send_repeated_start_condition,0
  1536  092D  292F               	goto	u3071
  1537  092E  2930               	goto	u3070
  1538  092F                     u3071:	
  1539  092F  2934               	goto	l347
  1540  0930                     u3070:	
  1541  0930                     l2995:	
  1542                           
  1543                           ;I2C.c: 151:     {;I2C.c: 152:         *(volatile uint8*)0x14 &= ~(1 << 7u);
  1544  0930  307F               	movlw	127
  1545  0931  00A0               	movwf	??_I2C_master_send_repeated_start_condition
  1546  0932  0820               	movf	??_I2C_master_send_repeated_start_condition,w
  1547  0933  0594               	andwf	20,f	;volatile
  1548  0934                     l347:	
  1549                           ;I2C.c: 153:     }
  1550                           
  1551  0934  0008               	return
  1552  0935                     __end_of_I2C_master_send_repeated_start_condition:	
  1553                           
  1554                           	psect	text7
  1555  0D9F                     __ptext7:	
  1556 ;; *************** function _I2C_master_receive_data *****************
  1557 ;; Defined at:
  1558 ;;		line 244 in file "I2C.c"
  1559 ;; Parameters:    Size  Location     Type
  1560 ;;  a_I2C_ack_st    1    wreg     enum E23
  1561 ;; Auto vars:     Size  Location     Type
  1562 ;;  a_I2C_ack_st    1    1[BANK0 ] enum E23
  1563 ;;  u8_retVal       1    2[BANK0 ] unsigned char 
  1564 ;; Return value:  Size  Location     Type
  1565 ;;                  1    wreg      unsigned char 
  1566 ;; Registers used:
  1567 ;;		wreg, status,2, status,0
  1568 ;; Tracked objects:
  1569 ;;		On entry : 0/0
  1570 ;;		On exit  : 0/0
  1571 ;;		Unchanged: 0/0
  1572 ;; Data sizes:     COMMON   BANK0   BANK1   BANK3   BANK2
  1573 ;;      Params:         0       0       0       0       0
  1574 ;;      Locals:         0       2       0       0       0
  1575 ;;      Temps:          0       1       0       0       0
  1576 ;;      Totals:         0       3       0       0       0
  1577 ;;Total ram usage:        3 bytes
  1578 ;; Hardware stack levels used:    1
  1579 ;; Hardware stack levels required when called:    3
  1580 ;; This function calls:
  1581 ;;		Nothing
  1582 ;; This function is called by:
  1583 ;;		_EEPROM_Read_Byte
  1584 ;;		_EEPROM_Read_Array
  1585 ;; This function uses a non-reentrant model
  1586 ;;
  1587                           
  1588                           
  1589                           ;psect for function _I2C_master_receive_data
  1590  0D9F                     _I2C_master_receive_data:	
  1591                           
  1592                           ;incstack = 0
  1593                           ; Regs used in _I2C_master_receive_data: [wreg+status,2+status,0]
  1594                           ;I2C_master_receive_data@a_I2C_ack_status_t stored from wreg
  1595  0D9F  1283               	bcf	3,5	;RP0=0, select bank0
  1596  0DA0  1303               	bcf	3,6	;RP1=0, select bank0
  1597  0DA1  00A1               	movwf	I2C_master_receive_data@a_I2C_ack_status_t
  1598  0DA2                     l2997:	
  1599                           
  1600                           ;I2C.c: 244: uint8 I2C_master_receive_data(EnumI2C_Ack_Status_t a_I2C_ack_status_t);I2C.
      +                          c: 245: {;I2C.c: 247:     uint8 u8_retVal;;I2C.c: 249:     if(a_I2C_ack_status_t == I2C_
      +                          SEND_ACK)
  1601  0DA2  0821               	movf	I2C_master_receive_data@a_I2C_ack_status_t,w
  1602  0DA3  1D03               	btfss	3,2
  1603  0DA4  2DA6               	goto	u3081
  1604  0DA5  2DA7               	goto	u3080
  1605  0DA6                     u3081:	
  1606  0DA6  2DAE               	goto	l370
  1607  0DA7                     u3080:	
  1608  0DA7                     l2999:	
  1609                           
  1610                           ;I2C.c: 250:     {;I2C.c: 251:         *(volatile uint8*)0x91 &= ~(1 << 5u);
  1611  0DA7  30DF               	movlw	223
  1612  0DA8  00A0               	movwf	??_I2C_master_receive_data
  1613  0DA9  0820               	movf	??_I2C_master_receive_data,w
  1614  0DAA  1683               	bsf	3,5	;RP0=1, select bank1
  1615  0DAB  1303               	bcf	3,6	;RP1=0, select bank1
  1616  0DAC  0591               	andwf	17,f	;volatile
  1617                           
  1618                           ;I2C.c: 252:     }
  1619  0DAD  2DB1               	goto	l3001
  1620  0DAE                     l370:	
  1621                           ;I2C.c: 253:     else
  1622                           
  1623                           
  1624                           ;I2C.c: 254:     {;I2C.c: 255:         *(volatile uint8*)0x91 |= 1 << 5u;
  1625  0DAE  1683               	bsf	3,5	;RP0=1, select bank1
  1626  0DAF  1303               	bcf	3,6	;RP1=0, select bank1
  1627  0DB0  1691               	bsf	17,5	;volatile
  1628  0DB1                     l3001:	
  1629  0DB1  1683               	bsf	3,5	;RP0=1, select bank1
  1630  0DB2  1303               	bcf	3,6	;RP1=0, select bank1
  1631  0DB3  0811               	movf	17,w	;volatile
  1632  0DB4  1283               	bcf	3,5	;RP0=0, select bank0
  1633  0DB5  1303               	bcf	3,6	;RP1=0, select bank0
  1634  0DB6  00A0               	movwf	??_I2C_master_receive_data
  1635  0DB7  3003               	movlw	3
  1636  0DB8                     u3095:	
  1637  0DB8  1003               	clrc
  1638  0DB9  0CA0               	rrf	??_I2C_master_receive_data,f
  1639  0DBA  3EFF               	addlw	-1
  1640  0DBB  1D03               	skipz
  1641  0DBC  2DB8               	goto	u3095
  1642  0DBD  1820               	btfsc	??_I2C_master_receive_data,0
  1643  0DBE  2DC0               	goto	u3101
  1644  0DBF  2DC1               	goto	u3100
  1645  0DC0                     u3101:	
  1646  0DC0  2DB1               	goto	l3001
  1647  0DC1                     u3100:	
  1648  0DC1                     l3003:	
  1649                           
  1650                           ;I2C.c: 260:     if(((*(volatile uint8*)0x14 >> 7u) & 0x01))
  1651  0DC1  0814               	movf	20,w	;volatile
  1652  0DC2  00A0               	movwf	??_I2C_master_receive_data
  1653  0DC3  3007               	movlw	7
  1654  0DC4                     u3115:	
  1655  0DC4  1003               	clrc
  1656  0DC5  0CA0               	rrf	??_I2C_master_receive_data,f
  1657  0DC6  3EFF               	addlw	-1
  1658  0DC7  1D03               	skipz
  1659  0DC8  2DC4               	goto	u3115
  1660  0DC9  1C20               	btfss	??_I2C_master_receive_data,0
  1661  0DCA  2DCC               	goto	u3121
  1662  0DCB  2DCD               	goto	u3120
  1663  0DCC                     u3121:	
  1664  0DCC  2DD1               	goto	l3007
  1665  0DCD                     u3120:	
  1666  0DCD                     l3005:	
  1667                           
  1668                           ;I2C.c: 261:     {;I2C.c: 262:         *(volatile uint8*)0x14 &= ~(1 << 7u);
  1669  0DCD  307F               	movlw	127
  1670  0DCE  00A0               	movwf	??_I2C_master_receive_data
  1671  0DCF  0820               	movf	??_I2C_master_receive_data,w
  1672  0DD0  0594               	andwf	20,f	;volatile
  1673  0DD1                     l3007:	
  1674                           ;I2C.c: 263:     }
  1675                           
  1676                           
  1677                           ;I2C.c: 269:     if(((*(volatile uint8*)0x14 >> 6u) & 0x01))
  1678  0DD1  0814               	movf	20,w	;volatile
  1679  0DD2  00A0               	movwf	??_I2C_master_receive_data
  1680  0DD3  3006               	movlw	6
  1681  0DD4                     u3135:	
  1682  0DD4  1003               	clrc
  1683  0DD5  0CA0               	rrf	??_I2C_master_receive_data,f
  1684  0DD6  3EFF               	addlw	-1
  1685  0DD7  1D03               	skipz
  1686  0DD8  2DD4               	goto	u3135
  1687  0DD9  1C20               	btfss	??_I2C_master_receive_data,0
  1688  0DDA  2DDC               	goto	u3141
  1689  0DDB  2DDD               	goto	u3140
  1690  0DDC                     u3141:	
  1691  0DDC  2DE1               	goto	l3011
  1692  0DDD                     u3140:	
  1693  0DDD                     l3009:	
  1694                           
  1695                           ;I2C.c: 270:     {;I2C.c: 271:         *(volatile uint8*)0x14 &= ~(1 << 6u);
  1696  0DDD  30BF               	movlw	191
  1697  0DDE  00A0               	movwf	??_I2C_master_receive_data
  1698  0DDF  0820               	movf	??_I2C_master_receive_data,w
  1699  0DE0  0594               	andwf	20,f	;volatile
  1700  0DE1                     l3011:	
  1701                           ;I2C.c: 272:     }
  1702                           
  1703                           
  1704                           ;I2C.c: 278:     u8_retVal = *(volatile uint8*)0x13;
  1705  0DE1  0813               	movf	19,w	;volatile
  1706  0DE2  00A0               	movwf	??_I2C_master_receive_data
  1707  0DE3  0820               	movf	??_I2C_master_receive_data,w
  1708  0DE4  00A2               	movwf	I2C_master_receive_data@u8_retVal
  1709  0DE5                     l3013:	
  1710                           
  1711                           ;I2C.c: 280:     *(volatile uint8*)0x91 |= 1 << 4u;
  1712  0DE5  1683               	bsf	3,5	;RP0=1, select bank1
  1713  0DE6  1303               	bcf	3,6	;RP1=0, select bank1
  1714  0DE7  1611               	bsf	17,4	;volatile
  1715  0DE8                     l3015:	
  1716                           
  1717                           ;I2C.c: 282:     if(((*(volatile uint8*)0x14 >> 7u) & 0x01))
  1718  0DE8  1283               	bcf	3,5	;RP0=0, select bank0
  1719  0DE9  1303               	bcf	3,6	;RP1=0, select bank0
  1720  0DEA  0814               	movf	20,w	;volatile
  1721  0DEB  00A0               	movwf	??_I2C_master_receive_data
  1722  0DEC  3007               	movlw	7
  1723  0DED                     u3155:	
  1724  0DED  1003               	clrc
  1725  0DEE  0CA0               	rrf	??_I2C_master_receive_data,f
  1726  0DEF  3EFF               	addlw	-1
  1727  0DF0  1D03               	skipz
  1728  0DF1  2DED               	goto	u3155
  1729  0DF2  1C20               	btfss	??_I2C_master_receive_data,0
  1730  0DF3  2DF5               	goto	u3161
  1731  0DF4  2DF6               	goto	u3160
  1732  0DF5                     u3161:	
  1733  0DF5  2DFA               	goto	l3019
  1734  0DF6                     u3160:	
  1735  0DF6                     l3017:	
  1736                           
  1737                           ;I2C.c: 283:     {;I2C.c: 284:         *(volatile uint8*)0x14 &= ~(1 << 7u);
  1738  0DF6  307F               	movlw	127
  1739  0DF7  00A0               	movwf	??_I2C_master_receive_data
  1740  0DF8  0820               	movf	??_I2C_master_receive_data,w
  1741  0DF9  0594               	andwf	20,f	;volatile
  1742  0DFA                     l3019:	
  1743                           ;I2C.c: 285:     }
  1744                           
  1745                           
  1746                           ;I2C.c: 291:     return u8_retVal;
  1747  0DFA  0822               	movf	I2C_master_receive_data@u8_retVal,w
  1748  0DFB                     l381:	
  1749  0DFB  0008               	return
  1750  0DFC                     __end_of_I2C_master_receive_data:	
  1751                           
  1752                           	psect	text8
  1753  060C                     __ptext8:	
  1754 ;; *************** function _Heater_reading_last_ten_temperature_values *****************
  1755 ;; Defined at:
  1756 ;;		line 474 in file "heater.c"
  1757 ;; Parameters:    Size  Location     Type
  1758 ;;		None
  1759 ;; Auto vars:     Size  Location     Type
  1760 ;;  g_u8Current_    1   17[BANK0 ] unsigned char 
  1761 ;; Return value:  Size  Location     Type
  1762 ;;                  1    wreg      void 
  1763 ;; Registers used:
  1764 ;;		wreg, fsr0l, fsr0h, status,2, status,0, pclath, cstack
  1765 ;; Tracked objects:
  1766 ;;		On entry : 0/0
  1767 ;;		On exit  : 0/0
  1768 ;;		Unchanged: 0/0
  1769 ;; Data sizes:     COMMON   BANK0   BANK1   BANK3   BANK2
  1770 ;;      Params:         0       0       0       0       0
  1771 ;;      Locals:         0       3       0       0       0
  1772 ;;      Temps:          0       4       0       0       0
  1773 ;;      Totals:         0       7       0       0       0
  1774 ;;Total ram usage:        7 bytes
  1775 ;; Hardware stack levels used:    1
  1776 ;; Hardware stack levels required when called:    5
  1777 ;; This function calls:
  1778 ;;		_ADC_Read_value
  1779 ;;		_ADC_Start_conversion
  1780 ;;		_Heater_heating_cooling_process
  1781 ;; This function is called by:
  1782 ;;		_main
  1783 ;; This function uses a non-reentrant model
  1784 ;;
  1785                           
  1786                           
  1787                           ;psect for function _Heater_reading_last_ten_temperature_values
  1788  060C                     _Heater_reading_last_ten_temperature_values:	
  1789  060C                     l3595:	
  1790                           ;incstack = 0
  1791                           ; Regs used in _Heater_reading_last_ten_temperature_values: [wreg-fsr0h+status,2+status,
      +                          0+pclath+cstack]
  1792                           
  1793                           
  1794                           ;heater.c: 477:     uint8 g_u8Current_reading_temperature;;heater.c: 479:     if(g_u8cal
      +                          culate_temperature_flag == 0)
  1795  060C  1283               	bcf	3,5	;RP0=0, select bank0
  1796  060D  1303               	bcf	3,6	;RP1=0, select bank0
  1797  060E  084D               	movf	_g_u8calculate_temperature_flag,w
  1798  060F  1D03               	btfss	3,2
  1799  0610  2E12               	goto	u4031
  1800  0611  2E13               	goto	u4030
  1801  0612                     u4031:	
  1802  0612  2E95               	goto	l693
  1803  0613                     u4030:	
  1804  0613                     l3597:	
  1805                           
  1806                           ;heater.c: 480:     {;heater.c: 482:         ADC_Start_conversion();
  1807  0613  120A  158A  2098  120A  118A  	fcall	_ADC_Start_conversion
  1808                           
  1809                           ;heater.c: 484:         g_u8Current_reading_temperature = ADC_Read_value() / 2;
  1810  0618  120A  158A  23FE  120A  118A  	fcall	_ADC_Read_value
  1811  061D  1283               	bcf	3,5	;RP0=0, select bank0
  1812  061E  1303               	bcf	3,6	;RP1=0, select bank0
  1813  061F  0820               	movf	?_ADC_Read_value,w
  1814  0620  00AB               	movwf	??_Heater_reading_last_ten_temperature_values
  1815  0621  0821               	movf	?_ADC_Read_value+1,w
  1816  0622  00AC               	movwf	??_Heater_reading_last_ten_temperature_values+1
  1817  0623  1003               	clrc
  1818  0624  0CAC               	rrf	??_Heater_reading_last_ten_temperature_values+1,f
  1819  0625  0CAB               	rrf	??_Heater_reading_last_ten_temperature_values,f
  1820  0626  082B               	movf	??_Heater_reading_last_ten_temperature_values,w
  1821  0627  00AD               	movwf	??_Heater_reading_last_ten_temperature_values+2
  1822  0628  082D               	movf	??_Heater_reading_last_ten_temperature_values+2,w
  1823  0629  00B1               	movwf	Heater_reading_last_ten_temperature_values@g_u8Current_reading_temperature
  1824  062A                     l3599:	
  1825                           
  1826                           ;heater.c: 486:         g_u8Current_reading_temperature = g_u8Current_reading_temperatur
      +                          e > 40 ?
  1827  062A  3029               	movlw	41
  1828  062B  0231               	subwf	Heater_reading_last_ten_temperature_values@g_u8Current_reading_temperature,w
  1829  062C  1803               	skipnc
  1830  062D  2E2F               	goto	u4041
  1831  062E  2E30               	goto	u4040
  1832  062F                     u4041:	
  1833  062F  2E38               	goto	l3603
  1834  0630                     u4040:	
  1835  0630                     l3601:	
  1836  0630  0831               	movf	Heater_reading_last_ten_temperature_values@g_u8Current_reading_temperature,w
  1837  0631  00AB               	movwf	??_Heater_reading_last_ten_temperature_values
  1838  0632  01AC               	clrf	??_Heater_reading_last_ten_temperature_values+1
  1839  0633  082B               	movf	??_Heater_reading_last_ten_temperature_values,w
  1840  0634  00AF               	movwf	_Heater_reading_last_ten_temperature_values$532
  1841  0635  082C               	movf	??_Heater_reading_last_ten_temperature_values+1,w
  1842  0636  00B0               	movwf	_Heater_reading_last_ten_temperature_values$532+1
  1843  0637  2E3F               	goto	l687
  1844  0638                     l3603:	
  1845  0638  0831               	movf	Heater_reading_last_ten_temperature_values@g_u8Current_reading_temperature,w
  1846  0639  3EFF               	addlw	255
  1847  063A  00AF               	movwf	_Heater_reading_last_ten_temperature_values$532
  1848  063B  30FF               	movlw	255
  1849  063C  1803               	skipnc
  1850  063D  3000               	movlw	0
  1851  063E  00B0               	movwf	_Heater_reading_last_ten_temperature_values$532+1
  1852  063F                     l687:	
  1853  063F  082F               	movf	_Heater_reading_last_ten_temperature_values$532,w
  1854  0640  00AB               	movwf	??_Heater_reading_last_ten_temperature_values
  1855  0641  082B               	movf	??_Heater_reading_last_ten_temperature_values,w
  1856  0642  00B1               	movwf	Heater_reading_last_ten_temperature_values@g_u8Current_reading_temperature
  1857                           
  1858                           ;heater.c: 489:         if(g_u8Reading_counter < 10)
  1859  0643  300A               	movlw	10
  1860  0644  024C               	subwf	_g_u8Reading_counter,w
  1861  0645  1803               	skipnc
  1862  0646  2E48               	goto	u4051
  1863  0647  2E49               	goto	u4050
  1864  0648                     u4051:	
  1865  0648  2E63               	goto	l3613
  1866  0649                     u4050:	
  1867  0649                     l3605:	
  1868                           
  1869                           ;heater.c: 490:         {;heater.c: 492:             g_u16Sum_of_ten_readings += g_u8Cur
      +                          rent_reading_temperature;
  1870  0649  0831               	movf	Heater_reading_last_ten_temperature_values@g_u8Current_reading_temperature,w
  1871  064A  00AB               	movwf	??_Heater_reading_last_ten_temperature_values
  1872  064B  01AC               	clrf	??_Heater_reading_last_ten_temperature_values+1
  1873  064C  082B               	movf	??_Heater_reading_last_ten_temperature_values,w
  1874  064D  07C7               	addwf	_g_u16Sum_of_ten_readings,f
  1875  064E  1803               	skipnc
  1876  064F  0AC8               	incf	_g_u16Sum_of_ten_readings+1,f
  1877  0650  082C               	movf	??_Heater_reading_last_ten_temperature_values+1,w
  1878  0651  07C8               	addwf	_g_u16Sum_of_ten_readings+1,f
  1879  0652                     l3607:	
  1880                           
  1881                           ;heater.c: 494:             g_u8Reading_arr[g_u8Reading_counter] = g_u8Current_reading_t
      +                          emperature;
  1882  0652  0831               	movf	Heater_reading_last_ten_temperature_values@g_u8Current_reading_temperature,w
  1883  0653  00AB               	movwf	??_Heater_reading_last_ten_temperature_values
  1884  0654  084C               	movf	_g_u8Reading_counter,w
  1885  0655  3E3D               	addlw	(low (_g_u8Reading_arr| 0))& (0+255)
  1886  0656  0084               	movwf	4
  1887  0657  082B               	movf	??_Heater_reading_last_ten_temperature_values,w
  1888  0658  1383               	bcf	3,7	;select IRP bank0
  1889  0659  0080               	movwf	0
  1890  065A                     l3609:	
  1891                           
  1892                           ;heater.c: 496:             g_u8Reading_counter++;
  1893  065A  3001               	movlw	1
  1894  065B  00AB               	movwf	??_Heater_reading_last_ten_temperature_values
  1895  065C  082B               	movf	??_Heater_reading_last_ten_temperature_values,w
  1896  065D  07CC               	addwf	_g_u8Reading_counter,f
  1897  065E                     l3611:	
  1898                           
  1899                           ;heater.c: 498:             g_u8Heater_real_time_temperature = g_u8Heater_wanted_tempera
      +                          ture;
  1900  065E  085E               	movf	_g_u8Heater_wanted_temperature,w
  1901  065F  00AB               	movwf	??_Heater_reading_last_ten_temperature_values
  1902  0660  082B               	movf	??_Heater_reading_last_ten_temperature_values,w
  1903  0661  00DD               	movwf	_g_u8Heater_real_time_temperature
  1904                           
  1905                           ;heater.c: 499:         }
  1906  0662  2E91               	goto	l3623
  1907  0663                     l3613:	
  1908                           
  1909                           ;heater.c: 502:         {;heater.c: 504:             g_u16Sum_of_ten_readings = g_u16Sum
      +                          _of_ten_readings + g_u8Current_reading_temperature -
  1910  0663  084B               	movf	_g_u8Reading_deleted_element,w
  1911  0664  3E3D               	addlw	(low (_g_u8Reading_arr| 0))& (0+255)
  1912  0665  0084               	movwf	4
  1913  0666  0831               	movf	Heater_reading_last_ten_temperature_values@g_u8Current_reading_temperature,w
  1914  0667  00AB               	movwf	??_Heater_reading_last_ten_temperature_values
  1915  0668  01AC               	clrf	??_Heater_reading_last_ten_temperature_values+1
  1916  0669  082C               	movf	??_Heater_reading_last_ten_temperature_values+1,w
  1917  066A  00AE               	movwf	??_Heater_reading_last_ten_temperature_values+3
  1918  066B  1383               	bcf	3,7	;select IRP bank0
  1919  066C  0800               	movf	0,w
  1920  066D  022B               	subwf	??_Heater_reading_last_ten_temperature_values,w
  1921  066E  00AD               	movwf	??_Heater_reading_last_ten_temperature_values+2
  1922  066F  1C03               	skipc
  1923  0670  03AE               	decf	??_Heater_reading_last_ten_temperature_values+3,f
  1924  0671  0847               	movf	_g_u16Sum_of_ten_readings,w
  1925  0672  072D               	addwf	??_Heater_reading_last_ten_temperature_values+2,w
  1926  0673  00C7               	movwf	_g_u16Sum_of_ten_readings
  1927  0674  0848               	movf	_g_u16Sum_of_ten_readings+1,w
  1928  0675  1803               	skipnc
  1929  0676  0A48               	incf	_g_u16Sum_of_ten_readings+1,w
  1930  0677  072E               	addwf	??_Heater_reading_last_ten_temperature_values+3,w
  1931  0678  00C8               	movwf	_g_u16Sum_of_ten_readings+1
  1932                           
  1933                           ;heater.c: 507:             g_u8Reading_arr[g_u8Reading_deleted_element] = g_u8Current_r
      +                          eading_temperature;
  1934  0679  0831               	movf	Heater_reading_last_ten_temperature_values@g_u8Current_reading_temperature,w
  1935  067A  00AB               	movwf	??_Heater_reading_last_ten_temperature_values
  1936  067B  084B               	movf	_g_u8Reading_deleted_element,w
  1937  067C  3E3D               	addlw	(low (_g_u8Reading_arr| 0))& (0+255)
  1938  067D  0084               	movwf	4
  1939  067E  082B               	movf	??_Heater_reading_last_ten_temperature_values,w
  1940  067F  0080               	movwf	0
  1941  0680                     l3615:	
  1942                           
  1943                           ;heater.c: 509:             if(g_u8Reading_deleted_element == 9)
  1944  0680  3009               	movlw	9
  1945  0681  064B               	xorwf	_g_u8Reading_deleted_element,w
  1946  0682  1D03               	btfss	3,2
  1947  0683  2E85               	goto	u4061
  1948  0684  2E86               	goto	u4060
  1949  0685                     u4061:	
  1950  0685  2E88               	goto	l3619
  1951  0686                     u4060:	
  1952  0686                     l3617:	
  1953                           
  1954                           ;heater.c: 510:             {;heater.c: 511:                 g_u8Reading_deleted_element
      +                           = 0;
  1955  0686  01CB               	clrf	_g_u8Reading_deleted_element
  1956                           
  1957                           ;heater.c: 512:             }
  1958  0687  2E8C               	goto	l3621
  1959  0688                     l3619:	
  1960                           
  1961                           ;heater.c: 514:             {;heater.c: 516:                 g_u8Reading_deleted_element
      +                          ++;
  1962  0688  3001               	movlw	1
  1963  0689  00AB               	movwf	??_Heater_reading_last_ten_temperature_values
  1964  068A  082B               	movf	??_Heater_reading_last_ten_temperature_values,w
  1965  068B  07CB               	addwf	_g_u8Reading_deleted_element,f
  1966  068C                     l3621:	
  1967                           
  1968                           ;heater.c: 519:             Heater_heating_cooling_process();
  1969  068C  120A  118A  24D0  120A  118A  	fcall	_Heater_heating_cooling_process
  1970  0691                     l3623:	
  1971                           
  1972                           ;heater.c: 522:         g_u8calculate_temperature_flag = 1;
  1973  0691  1283               	bcf	3,5	;RP0=0, select bank0
  1974  0692  1303               	bcf	3,6	;RP1=0, select bank0
  1975  0693  01CD               	clrf	_g_u8calculate_temperature_flag
  1976  0694  0ACD               	incf	_g_u8calculate_temperature_flag,f
  1977  0695                     l693:	
  1978                           ;heater.c: 523:     }
  1979                           
  1980  0695  0008               	return
  1981  0696                     __end_of_Heater_reading_last_ten_temperature_values:	
  1982                           
  1983                           	psect	text9
  1984  04D0                     __ptext9:	
  1985 ;; *************** function _Heater_heating_cooling_process *****************
  1986 ;; Defined at:
  1987 ;;		line 186 in file "heater.c"
  1988 ;; Parameters:    Size  Location     Type
  1989 ;;		None
  1990 ;; Auto vars:     Size  Location     Type
  1991 ;;		None
  1992 ;; Return value:  Size  Location     Type
  1993 ;;                  1    wreg      void 
  1994 ;; Registers used:
  1995 ;;		wreg, fsr0l, fsr0h, status,2, status,0, pclath, cstack
  1996 ;; Tracked objects:
  1997 ;;		On entry : 0/0
  1998 ;;		On exit  : 0/0
  1999 ;;		Unchanged: 0/0
  2000 ;; Data sizes:     COMMON   BANK0   BANK1   BANK3   BANK2
  2001 ;;      Params:         0       0       0       0       0
  2002 ;;      Locals:         0       0       0       0       0
  2003 ;;      Temps:          0       1       0       0       0
  2004 ;;      Totals:         0       1       0       0       0
  2005 ;;Total ram usage:        1 bytes
  2006 ;; Hardware stack levels used:    1
  2007 ;; Hardware stack levels required when called:    4
  2008 ;; This function calls:
  2009 ;;		_GPIO_WriteOnPin
  2010 ;;		___lwdiv
  2011 ;; This function is called by:
  2012 ;;		_Heater_reading_last_ten_temperature_values
  2013 ;; This function uses a non-reentrant model
  2014 ;;
  2015                           
  2016                           
  2017                           ;psect for function _Heater_heating_cooling_process
  2018  04D0                     _Heater_heating_cooling_process:	
  2019  04D0                     l3517:	
  2020                           ;incstack = 0
  2021                           ; Regs used in _Heater_heating_cooling_process: [wreg-fsr0h+status,2+status,0+pclath+cst
      +                          ack]
  2022                           
  2023                           
  2024                           ;heater.c: 189:     g_u8Heater_real_time_temperature = g_u16Sum_of_ten_readings / 10;
  2025  04D0  300A               	movlw	10
  2026  04D1  1283               	bcf	3,5	;RP0=0, select bank0
  2027  04D2  1303               	bcf	3,6	;RP1=0, select bank0
  2028  04D3  00A0               	movwf	___lwdiv@divisor
  2029  04D4  3000               	movlw	0
  2030  04D5  00A1               	movwf	___lwdiv@divisor+1
  2031  04D6  0848               	movf	_g_u16Sum_of_ten_readings+1,w
  2032  04D7  00A3               	movwf	___lwdiv@dividend+1
  2033  04D8  0847               	movf	_g_u16Sum_of_ten_readings,w
  2034  04D9  00A2               	movwf	___lwdiv@dividend
  2035  04DA  120A  158A  232B  120A  118A  	fcall	___lwdiv
  2036  04DF  1283               	bcf	3,5	;RP0=0, select bank0
  2037  04E0  1303               	bcf	3,6	;RP1=0, select bank0
  2038  04E1  0820               	movf	?___lwdiv,w
  2039  04E2  00A8               	movwf	??_Heater_heating_cooling_process
  2040  04E3  0828               	movf	??_Heater_heating_cooling_process,w
  2041  04E4  00DD               	movwf	_g_u8Heater_real_time_temperature
  2042  04E5                     l3519:	
  2043                           
  2044                           ;heater.c: 191:     if(g_u8Heater_wanted_temperature < g_u8Heater_real_time_temperature)
  2045  04E5  085D               	movf	_g_u8Heater_real_time_temperature,w
  2046  04E6  025E               	subwf	_g_u8Heater_wanted_temperature,w
  2047  04E7  1803               	skipnc
  2048  04E8  2CEA               	goto	u3971
  2049  04E9  2CEB               	goto	u3970
  2050  04EA                     u3971:	
  2051  04EA  2D19               	goto	l3525
  2052  04EB                     u3970:	
  2053  04EB                     l3521:	
  2054                           
  2055                           ;heater.c: 192:     {;heater.c: 194:         GPIO_WriteOnPin(1u , 7u , 1u);
  2056  04EB  3007               	movlw	7
  2057  04EC  00A8               	movwf	??_Heater_heating_cooling_process
  2058  04ED  0828               	movf	??_Heater_heating_cooling_process,w
  2059  04EE  00A0               	movwf	GPIO_WriteOnPin@a_u8pin
  2060  04EF  01A1               	clrf	GPIO_WriteOnPin@a_u8value
  2061  04F0  0AA1               	incf	GPIO_WriteOnPin@a_u8value,f
  2062  04F1  3001               	movlw	1
  2063  04F2  120A  118A  2257  120A  118A  	fcall	_GPIO_WriteOnPin
  2064                           
  2065                           ;heater.c: 196:         GPIO_WriteOnPin(2u , 2u , 1u);
  2066  04F7  3002               	movlw	2
  2067  04F8  1283               	bcf	3,5	;RP0=0, select bank0
  2068  04F9  1303               	bcf	3,6	;RP1=0, select bank0
  2069  04FA  00A8               	movwf	??_Heater_heating_cooling_process
  2070  04FB  0828               	movf	??_Heater_heating_cooling_process,w
  2071  04FC  00A0               	movwf	GPIO_WriteOnPin@a_u8pin
  2072  04FD  01A1               	clrf	GPIO_WriteOnPin@a_u8value
  2073  04FE  0AA1               	incf	GPIO_WriteOnPin@a_u8value,f
  2074  04FF  3002               	movlw	2
  2075  0500  120A  118A  2257  120A  118A  	fcall	_GPIO_WriteOnPin
  2076                           
  2077                           ;heater.c: 198:         GPIO_WriteOnPin(2u , 5u , 0u);
  2078  0505  3005               	movlw	5
  2079  0506  1283               	bcf	3,5	;RP0=0, select bank0
  2080  0507  1303               	bcf	3,6	;RP1=0, select bank0
  2081  0508  00A8               	movwf	??_Heater_heating_cooling_process
  2082  0509  0828               	movf	??_Heater_heating_cooling_process,w
  2083  050A  00A0               	movwf	GPIO_WriteOnPin@a_u8pin
  2084  050B  01A1               	clrf	GPIO_WriteOnPin@a_u8value
  2085  050C  3002               	movlw	2
  2086  050D  120A  118A  2257  120A  118A  	fcall	_GPIO_WriteOnPin
  2087  0512                     l3523:	
  2088                           
  2089                           ;heater.c: 200:         g_u8Led_blank_counter = 20;
  2090  0512  3014               	movlw	20
  2091  0513  1283               	bcf	3,5	;RP0=0, select bank0
  2092  0514  1303               	bcf	3,6	;RP1=0, select bank0
  2093  0515  00A8               	movwf	??_Heater_heating_cooling_process
  2094  0516  0828               	movf	??_Heater_heating_cooling_process,w
  2095  0517  00C9               	movwf	_g_u8Led_blank_counter
  2096                           
  2097                           ;heater.c: 201:     }
  2098  0518  2D80               	goto	l647
  2099  0519                     l3525:	
  2100  0519  085E               	movf	_g_u8Heater_wanted_temperature,w
  2101  051A  025D               	subwf	_g_u8Heater_real_time_temperature,w
  2102  051B  1803               	skipnc
  2103  051C  2D1E               	goto	u3981
  2104  051D  2D1F               	goto	u3980
  2105  051E                     u3981:	
  2106  051E  2D68               	goto	l3543
  2107  051F                     u3980:	
  2108  051F                     l3527:	
  2109                           
  2110                           ;heater.c: 204:     {;heater.c: 206:         GPIO_WriteOnPin(2u , 2u , 0u);
  2111  051F  3002               	movlw	2
  2112  0520  00A8               	movwf	??_Heater_heating_cooling_process
  2113  0521  0828               	movf	??_Heater_heating_cooling_process,w
  2114  0522  00A0               	movwf	GPIO_WriteOnPin@a_u8pin
  2115  0523  01A1               	clrf	GPIO_WriteOnPin@a_u8value
  2116  0524  3002               	movlw	2
  2117  0525  120A  118A  2257  120A  118A  	fcall	_GPIO_WriteOnPin
  2118                           
  2119                           ;heater.c: 208:         GPIO_WriteOnPin(2u , 5u , 1u);
  2120  052A  3005               	movlw	5
  2121  052B  1283               	bcf	3,5	;RP0=0, select bank0
  2122  052C  1303               	bcf	3,6	;RP1=0, select bank0
  2123  052D  00A8               	movwf	??_Heater_heating_cooling_process
  2124  052E  0828               	movf	??_Heater_heating_cooling_process,w
  2125  052F  00A0               	movwf	GPIO_WriteOnPin@a_u8pin
  2126  0530  01A1               	clrf	GPIO_WriteOnPin@a_u8value
  2127  0531  0AA1               	incf	GPIO_WriteOnPin@a_u8value,f
  2128  0532  3002               	movlw	2
  2129  0533  120A  118A  2257  120A  118A  	fcall	_GPIO_WriteOnPin
  2130  0538                     l3529:	
  2131                           
  2132                           ;heater.c: 210:         if(g_u8Led_blank_counter == 10)
  2133  0538  300A               	movlw	10
  2134  0539  1283               	bcf	3,5	;RP0=0, select bank0
  2135  053A  1303               	bcf	3,6	;RP1=0, select bank0
  2136  053B  0649               	xorwf	_g_u8Led_blank_counter,w
  2137  053C  1D03               	btfss	3,2
  2138  053D  2D3F               	goto	u3991
  2139  053E  2D40               	goto	u3990
  2140  053F                     u3991:	
  2141  053F  2D53               	goto	l3535
  2142  0540                     u3990:	
  2143  0540                     l3531:	
  2144                           
  2145                           ;heater.c: 211:         {;heater.c: 213:             GPIO_WriteOnPin(1u , 7u , 1u);
  2146  0540  3007               	movlw	7
  2147  0541  00A8               	movwf	??_Heater_heating_cooling_process
  2148  0542  0828               	movf	??_Heater_heating_cooling_process,w
  2149  0543  00A0               	movwf	GPIO_WriteOnPin@a_u8pin
  2150  0544  01A1               	clrf	GPIO_WriteOnPin@a_u8value
  2151  0545  0AA1               	incf	GPIO_WriteOnPin@a_u8value,f
  2152  0546  3001               	movlw	1
  2153  0547  120A  118A  2257  120A  118A  	fcall	_GPIO_WriteOnPin
  2154  054C                     l3533:	
  2155                           
  2156                           ;heater.c: 215:             g_u8Led_blank_counter++;
  2157  054C  3001               	movlw	1
  2158  054D  1283               	bcf	3,5	;RP0=0, select bank0
  2159  054E  1303               	bcf	3,6	;RP1=0, select bank0
  2160  054F  00A8               	movwf	??_Heater_heating_cooling_process
  2161  0550  0828               	movf	??_Heater_heating_cooling_process,w
  2162  0551  07C9               	addwf	_g_u8Led_blank_counter,f
  2163                           
  2164                           ;heater.c: 217:         }
  2165  0552  2D80               	goto	l647
  2166  0553                     l3535:	
  2167  0553  3014               	movlw	20
  2168  0554  0649               	xorwf	_g_u8Led_blank_counter,w
  2169  0555  1D03               	btfss	3,2
  2170  0556  2D58               	goto	u4001
  2171  0557  2D59               	goto	u4000
  2172  0558                     u4001:	
  2173  0558  2D4C               	goto	l3533
  2174  0559                     u4000:	
  2175  0559                     l3537:	
  2176                           
  2177                           ;heater.c: 219:         {;heater.c: 221:             GPIO_WriteOnPin(1u , 7u , 0u);
  2178  0559  3007               	movlw	7
  2179  055A  00A8               	movwf	??_Heater_heating_cooling_process
  2180  055B  0828               	movf	??_Heater_heating_cooling_process,w
  2181  055C  00A0               	movwf	GPIO_WriteOnPin@a_u8pin
  2182  055D  01A1               	clrf	GPIO_WriteOnPin@a_u8value
  2183  055E  3001               	movlw	1
  2184  055F  120A  118A  2257  120A  118A  	fcall	_GPIO_WriteOnPin
  2185  0564                     l3539:	
  2186                           
  2187                           ;heater.c: 223:             g_u8Led_blank_counter = 0;
  2188  0564  1283               	bcf	3,5	;RP0=0, select bank0
  2189  0565  1303               	bcf	3,6	;RP1=0, select bank0
  2190  0566  01C9               	clrf	_g_u8Led_blank_counter
  2191                           
  2192                           ;heater.c: 224:         }
  2193  0567  2D80               	goto	l647
  2194  0568                     l3543:	
  2195                           
  2196                           ;heater.c: 233:     {;heater.c: 235:         GPIO_WriteOnPin(2u , 2u , 0u);
  2197  0568  3002               	movlw	2
  2198  0569  00A8               	movwf	??_Heater_heating_cooling_process
  2199  056A  0828               	movf	??_Heater_heating_cooling_process,w
  2200  056B  00A0               	movwf	GPIO_WriteOnPin@a_u8pin
  2201  056C  01A1               	clrf	GPIO_WriteOnPin@a_u8value
  2202  056D  3002               	movlw	2
  2203  056E  120A  118A  2257  120A  118A  	fcall	_GPIO_WriteOnPin
  2204                           
  2205                           ;heater.c: 237:         GPIO_WriteOnPin(2u , 5u , 0u);
  2206  0573  3005               	movlw	5
  2207  0574  1283               	bcf	3,5	;RP0=0, select bank0
  2208  0575  1303               	bcf	3,6	;RP1=0, select bank0
  2209  0576  00A8               	movwf	??_Heater_heating_cooling_process
  2210  0577  0828               	movf	??_Heater_heating_cooling_process,w
  2211  0578  00A0               	movwf	GPIO_WriteOnPin@a_u8pin
  2212  0579  01A1               	clrf	GPIO_WriteOnPin@a_u8value
  2213  057A  3002               	movlw	2
  2214  057B  120A  118A  2257  120A  118A  	fcall	_GPIO_WriteOnPin
  2215  0580                     l647:	
  2216  0580  0008               	return
  2217  0581                     __end_of_Heater_heating_cooling_process:	
  2218                           
  2219                           	psect	text10
  2220  0B2B                     __ptext10:	
  2221 ;; *************** function ___lwdiv *****************
  2222 ;; Defined at:
  2223 ;;		line 5 in file "C:\Program Files (x86)\Microchip\xc8\v2.10\pic\sources\c90\common\lwdiv.c"
  2224 ;; Parameters:    Size  Location     Type
  2225 ;;  divisor         2    0[BANK0 ] unsigned int 
  2226 ;;  dividend        2    2[BANK0 ] unsigned int 
  2227 ;; Auto vars:     Size  Location     Type
  2228 ;;  quotient        2    5[BANK0 ] unsigned int 
  2229 ;;  counter         1    7[BANK0 ] unsigned char 
  2230 ;; Return value:  Size  Location     Type
  2231 ;;                  2    0[BANK0 ] unsigned int 
  2232 ;; Registers used:
  2233 ;;		wreg, status,2, status,0
  2234 ;; Tracked objects:
  2235 ;;		On entry : 0/0
  2236 ;;		On exit  : 0/0
  2237 ;;		Unchanged: 0/0
  2238 ;; Data sizes:     COMMON   BANK0   BANK1   BANK3   BANK2
  2239 ;;      Params:         0       4       0       0       0
  2240 ;;      Locals:         0       3       0       0       0
  2241 ;;      Temps:          0       1       0       0       0
  2242 ;;      Totals:         0       8       0       0       0
  2243 ;;Total ram usage:        8 bytes
  2244 ;; Hardware stack levels used:    1
  2245 ;; Hardware stack levels required when called:    3
  2246 ;; This function calls:
  2247 ;;		Nothing
  2248 ;; This function is called by:
  2249 ;;		_Heater_heating_cooling_process
  2250 ;; This function uses a non-reentrant model
  2251 ;;
  2252                           
  2253                           
  2254                           ;psect for function ___lwdiv
  2255  0B2B                     ___lwdiv:	
  2256  0B2B                     l3233:	
  2257                           ;incstack = 0
  2258                           ; Regs used in ___lwdiv: [wreg+status,2+status,0]
  2259                           
  2260  0B2B  1283               	bcf	3,5	;RP0=0, select bank0
  2261  0B2C  1303               	bcf	3,6	;RP1=0, select bank0
  2262  0B2D  01A5               	clrf	___lwdiv@quotient
  2263  0B2E  01A6               	clrf	___lwdiv@quotient+1
  2264  0B2F                     l3235:	
  2265  0B2F  0820               	movf	___lwdiv@divisor,w
  2266  0B30  0421               	iorwf	___lwdiv@divisor+1,w
  2267  0B31  1903               	btfsc	3,2
  2268  0B32  2B34               	goto	u3571
  2269  0B33  2B35               	goto	u3570
  2270  0B34                     u3571:	
  2271  0B34  2B6C               	goto	l3255
  2272  0B35                     u3570:	
  2273  0B35                     l3237:	
  2274  0B35  01A7               	clrf	___lwdiv@counter
  2275  0B36  0AA7               	incf	___lwdiv@counter,f
  2276  0B37  2B43               	goto	l3243
  2277  0B38                     l3239:	
  2278  0B38  3001               	movlw	1
  2279  0B39                     u3585:	
  2280  0B39  1003               	clrc
  2281  0B3A  0DA0               	rlf	___lwdiv@divisor,f
  2282  0B3B  0DA1               	rlf	___lwdiv@divisor+1,f
  2283  0B3C  3EFF               	addlw	-1
  2284  0B3D  1D03               	skipz
  2285  0B3E  2B39               	goto	u3585
  2286  0B3F                     l3241:	
  2287  0B3F  3001               	movlw	1
  2288  0B40  00A4               	movwf	??___lwdiv
  2289  0B41  0824               	movf	??___lwdiv,w
  2290  0B42  07A7               	addwf	___lwdiv@counter,f
  2291  0B43                     l3243:	
  2292  0B43  1FA1               	btfss	___lwdiv@divisor+1,7
  2293  0B44  2B46               	goto	u3591
  2294  0B45  2B47               	goto	u3590
  2295  0B46                     u3591:	
  2296  0B46  2B38               	goto	l3239
  2297  0B47                     u3590:	
  2298  0B47                     l3245:	
  2299  0B47  3001               	movlw	1
  2300  0B48                     u3605:	
  2301  0B48  1003               	clrc
  2302  0B49  0DA5               	rlf	___lwdiv@quotient,f
  2303  0B4A  0DA6               	rlf	___lwdiv@quotient+1,f
  2304  0B4B  3EFF               	addlw	-1
  2305  0B4C  1D03               	skipz
  2306  0B4D  2B48               	goto	u3605
  2307  0B4E  0821               	movf	___lwdiv@divisor+1,w
  2308  0B4F  0223               	subwf	___lwdiv@dividend+1,w
  2309  0B50  1D03               	skipz
  2310  0B51  2B54               	goto	u3615
  2311  0B52  0820               	movf	___lwdiv@divisor,w
  2312  0B53  0222               	subwf	___lwdiv@dividend,w
  2313  0B54                     u3615:	
  2314  0B54  1C03               	skipc
  2315  0B55  2B57               	goto	u3611
  2316  0B56  2B58               	goto	u3610
  2317  0B57                     u3611:	
  2318  0B57  2B5F               	goto	l3251
  2319  0B58                     u3610:	
  2320  0B58                     l3247:	
  2321  0B58  0820               	movf	___lwdiv@divisor,w
  2322  0B59  02A2               	subwf	___lwdiv@dividend,f
  2323  0B5A  0821               	movf	___lwdiv@divisor+1,w
  2324  0B5B  1C03               	skipc
  2325  0B5C  03A3               	decf	___lwdiv@dividend+1,f
  2326  0B5D  02A3               	subwf	___lwdiv@dividend+1,f
  2327  0B5E                     l3249:	
  2328  0B5E  1425               	bsf	___lwdiv@quotient,0
  2329  0B5F                     l3251:	
  2330  0B5F  3001               	movlw	1
  2331  0B60                     u3625:	
  2332  0B60  1003               	clrc
  2333  0B61  0CA1               	rrf	___lwdiv@divisor+1,f
  2334  0B62  0CA0               	rrf	___lwdiv@divisor,f
  2335  0B63  3EFF               	addlw	-1
  2336  0B64  1D03               	skipz
  2337  0B65  2B60               	goto	u3625
  2338  0B66                     l3253:	
  2339  0B66  3001               	movlw	1
  2340  0B67  02A7               	subwf	___lwdiv@counter,f
  2341  0B68  1D03               	btfss	3,2
  2342  0B69  2B6B               	goto	u3631
  2343  0B6A  2B6C               	goto	u3630
  2344  0B6B                     u3631:	
  2345  0B6B  2B47               	goto	l3245
  2346  0B6C                     u3630:	
  2347  0B6C                     l3255:	
  2348  0B6C  0826               	movf	___lwdiv@quotient+1,w
  2349  0B6D  00A1               	movwf	?___lwdiv+1
  2350  0B6E  0825               	movf	___lwdiv@quotient,w
  2351  0B6F  00A0               	movwf	?___lwdiv
  2352  0B70                     l1079:	
  2353  0B70  0008               	return
  2354  0B71                     __end_of___lwdiv:	
  2355                           
  2356                           	psect	text11
  2357  0898                     __ptext11:	
  2358 ;; *************** function _ADC_Start_conversion *****************
  2359 ;; Defined at:
  2360 ;;		line 267 in file "ADC.c"
  2361 ;; Parameters:    Size  Location     Type
  2362 ;;		None
  2363 ;; Auto vars:     Size  Location     Type
  2364 ;;		None
  2365 ;; Return value:  Size  Location     Type
  2366 ;;                  1    wreg      void 
  2367 ;; Registers used:
  2368 ;;		wreg, status,2, status,0
  2369 ;; Tracked objects:
  2370 ;;		On entry : 0/0
  2371 ;;		On exit  : 0/0
  2372 ;;		Unchanged: 0/0
  2373 ;; Data sizes:     COMMON   BANK0   BANK1   BANK3   BANK2
  2374 ;;      Params:         0       0       0       0       0
  2375 ;;      Locals:         0       0       0       0       0
  2376 ;;      Temps:          0       1       0       0       0
  2377 ;;      Totals:         0       1       0       0       0
  2378 ;;Total ram usage:        1 bytes
  2379 ;; Hardware stack levels used:    1
  2380 ;; Hardware stack levels required when called:    3
  2381 ;; This function calls:
  2382 ;;		Nothing
  2383 ;; This function is called by:
  2384 ;;		_Heater_reading_last_ten_temperature_values
  2385 ;; This function uses a non-reentrant model
  2386 ;;
  2387                           
  2388                           
  2389                           ;psect for function _ADC_Start_conversion
  2390  0898                     _ADC_Start_conversion:	
  2391  0898                     l3383:	
  2392                           ;incstack = 0
  2393                           ; Regs used in _ADC_Start_conversion: [wreg+status,2+status,0]
  2394                           
  2395  0898                     l3385:	
  2396                           ;ADC.c: 269:     while(((*(volatile uint8*)0x1F >> 2u) & 0x01));
  2397                           
  2398  0898  1283               	bcf	3,5	;RP0=0, select bank0
  2399  0899  1303               	bcf	3,6	;RP1=0, select bank0
  2400  089A  081F               	movf	31,w	;volatile
  2401  089B  00A0               	movwf	??_ADC_Start_conversion
  2402  089C  3002               	movlw	2
  2403  089D                     u3875:	
  2404  089D  1003               	clrc
  2405  089E  0CA0               	rrf	??_ADC_Start_conversion,f
  2406  089F  3EFF               	addlw	-1
  2407  08A0  1D03               	skipz
  2408  08A1  289D               	goto	u3875
  2409  08A2  1820               	btfsc	??_ADC_Start_conversion,0
  2410  08A3  28A5               	goto	u3881
  2411  08A4  28A6               	goto	u3880
  2412  08A5                     u3881:	
  2413  08A5  2898               	goto	l3385
  2414  08A6                     u3880:	
  2415  08A6                     l64:	
  2416                           
  2417                           ;ADC.c: 270:     *(volatile uint8*)0x1F |= 1 << 2u;
  2418  08A6  151F               	bsf	31,2	;volatile
  2419  08A7                     l65:	
  2420  08A7  0008               	return
  2421  08A8                     __end_of_ADC_Start_conversion:	
  2422                           
  2423                           	psect	text12
  2424  0BFE                     __ptext12:	
  2425 ;; *************** function _ADC_Read_value *****************
  2426 ;; Defined at:
  2427 ;;		line 237 in file "ADC.c"
  2428 ;; Parameters:    Size  Location     Type
  2429 ;;		None
  2430 ;; Auto vars:     Size  Location     Type
  2431 ;;  retVal          2    9[BANK0 ] unsigned short 
  2432 ;; Return value:  Size  Location     Type
  2433 ;;                  2    0[BANK0 ] unsigned short 
  2434 ;; Registers used:
  2435 ;;		wreg, status,2, status,0
  2436 ;; Tracked objects:
  2437 ;;		On entry : 0/0
  2438 ;;		On exit  : 0/0
  2439 ;;		Unchanged: 0/0
  2440 ;; Data sizes:     COMMON   BANK0   BANK1   BANK3   BANK2
  2441 ;;      Params:         0       2       0       0       0
  2442 ;;      Locals:         0       2       0       0       0
  2443 ;;      Temps:          0       7       0       0       0
  2444 ;;      Totals:         0      11       0       0       0
  2445 ;;Total ram usage:       11 bytes
  2446 ;; Hardware stack levels used:    1
  2447 ;; Hardware stack levels required when called:    3
  2448 ;; This function calls:
  2449 ;;		Nothing
  2450 ;; This function is called by:
  2451 ;;		_Heater_reading_last_ten_temperature_values
  2452 ;; This function uses a non-reentrant model
  2453 ;;
  2454                           
  2455                           
  2456                           ;psect for function _ADC_Read_value
  2457  0BFE                     _ADC_Read_value:	
  2458  0BFE                     l3369:	
  2459                           ;incstack = 0
  2460                           ; Regs used in _ADC_Read_value: [wreg+status,2+status,0]
  2461                           
  2462  0BFE                     l3371:	
  2463                           ;ADC.c: 241:     while((((*(volatile uint8*)0x1F >> 2u) & 0x01)));
  2464                           
  2465  0BFE  1283               	bcf	3,5	;RP0=0, select bank0
  2466  0BFF  1303               	bcf	3,6	;RP1=0, select bank0
  2467  0C00  081F               	movf	31,w	;volatile
  2468  0C01  00A2               	movwf	??_ADC_Read_value
  2469  0C02  3002               	movlw	2
  2470  0C03                     u3825:	
  2471  0C03  1003               	clrc
  2472  0C04  0CA2               	rrf	??_ADC_Read_value,f
  2473  0C05  3EFF               	addlw	-1
  2474  0C06  1D03               	skipz
  2475  0C07  2C03               	goto	u3825
  2476  0C08  1822               	btfsc	??_ADC_Read_value,0
  2477  0C09  2C0B               	goto	u3831
  2478  0C0A  2C0C               	goto	u3830
  2479  0C0B                     u3831:	
  2480  0C0B  2BFE               	goto	l3371
  2481  0C0C                     u3830:	
  2482  0C0C                     l3373:	
  2483                           
  2484                           ;ADC.c: 243:     if(((*(volatile uint8*)0x9F >> 7u) & 0x01))
  2485  0C0C  1683               	bsf	3,5	;RP0=1, select bank1
  2486  0C0D  1303               	bcf	3,6	;RP1=0, select bank1
  2487  0C0E  081F               	movf	31,w	;volatile
  2488  0C0F  1283               	bcf	3,5	;RP0=0, select bank0
  2489  0C10  1303               	bcf	3,6	;RP1=0, select bank0
  2490  0C11  00A2               	movwf	??_ADC_Read_value
  2491  0C12  3007               	movlw	7
  2492  0C13                     u3845:	
  2493  0C13  1003               	clrc
  2494  0C14  0CA2               	rrf	??_ADC_Read_value,f
  2495  0C15  3EFF               	addlw	-1
  2496  0C16  1D03               	skipz
  2497  0C17  2C13               	goto	u3845
  2498  0C18  1C22               	btfss	??_ADC_Read_value,0
  2499  0C19  2C1B               	goto	u3851
  2500  0C1A  2C1C               	goto	u3850
  2501  0C1B                     u3851:	
  2502  0C1B  2C25               	goto	l3377
  2503  0C1C                     u3850:	
  2504  0C1C                     l3375:	
  2505                           
  2506                           ;ADC.c: 244:     {;ADC.c: 246:         retVal = (uint16)*(volatile uint8*)0x1E << 8 | *(
      +                          volatile uint8*)0x9E;
  2507  0C1C  081E               	movf	30,w	;volatile
  2508  0C1D  00AA               	movwf	ADC_Read_value@retVal+1
  2509  0C1E  1683               	bsf	3,5	;RP0=1, select bank1
  2510  0C1F  1303               	bcf	3,6	;RP1=0, select bank1
  2511  0C20  081E               	movf	30,w	;volatile
  2512  0C21  1283               	bcf	3,5	;RP0=0, select bank0
  2513  0C22  1303               	bcf	3,6	;RP1=0, select bank0
  2514  0C23  00A9               	movwf	ADC_Read_value@retVal
  2515                           
  2516                           ;ADC.c: 247:     }
  2517  0C24  2C47               	goto	l3379
  2518  0C25                     l3377:	
  2519                           
  2520                           ;ADC.c: 249:     {;ADC.c: 251:         retVal = (uint16)*(volatile uint8*)0x1E << 2 | *(
      +                          volatile uint8*)0x9E >> 6;
  2521  0C25  1683               	bsf	3,5	;RP0=1, select bank1
  2522  0C26  1303               	bcf	3,6	;RP1=0, select bank1
  2523  0C27  081E               	movf	30,w	;volatile
  2524  0C28  1283               	bcf	3,5	;RP0=0, select bank0
  2525  0C29  1303               	bcf	3,6	;RP1=0, select bank0
  2526  0C2A  00A2               	movwf	??_ADC_Read_value
  2527  0C2B  3006               	movlw	6
  2528  0C2C                     u3865:	
  2529  0C2C  1003               	clrc
  2530  0C2D  0CA2               	rrf	??_ADC_Read_value,f
  2531  0C2E  3EFF               	addlw	-1
  2532  0C2F  1D03               	skipz
  2533  0C30  2C2C               	goto	u3865
  2534  0C31  0822               	movf	??_ADC_Read_value,w
  2535  0C32  00A3               	movwf	??_ADC_Read_value+1
  2536  0C33  01A4               	clrf	??_ADC_Read_value+2
  2537  0C34  081E               	movf	30,w	;volatile
  2538  0C35  00A5               	movwf	??_ADC_Read_value+3
  2539  0C36  01A6               	clrf	??_ADC_Read_value+4
  2540  0C37  1003               	clrc
  2541  0C38  0DA5               	rlf	??_ADC_Read_value+3,f
  2542  0C39  0DA6               	rlf	??_ADC_Read_value+4,f
  2543  0C3A  1003               	clrc
  2544  0C3B  0DA5               	rlf	??_ADC_Read_value+3,f
  2545  0C3C  0DA6               	rlf	??_ADC_Read_value+4,f
  2546  0C3D  0823               	movf	??_ADC_Read_value+1,w
  2547  0C3E  0425               	iorwf	??_ADC_Read_value+3,w
  2548  0C3F  00A7               	movwf	??_ADC_Read_value+5
  2549  0C40  0824               	movf	??_ADC_Read_value+2,w
  2550  0C41  0426               	iorwf	??_ADC_Read_value+4,w
  2551  0C42  00A8               	movwf	??_ADC_Read_value+6
  2552  0C43  0827               	movf	??_ADC_Read_value+5,w
  2553  0C44  00A9               	movwf	ADC_Read_value@retVal
  2554  0C45  0828               	movf	??_ADC_Read_value+6,w
  2555  0C46  00AA               	movwf	ADC_Read_value@retVal+1
  2556  0C47                     l3379:	
  2557                           
  2558                           ;ADC.c: 253:     return retVal;
  2559  0C47  082A               	movf	ADC_Read_value@retVal+1,w
  2560  0C48  00A1               	movwf	?_ADC_Read_value+1
  2561  0C49  0829               	movf	ADC_Read_value@retVal,w
  2562  0C4A  00A0               	movwf	?_ADC_Read_value
  2563  0C4B                     l59:	
  2564  0C4B  0008               	return
  2565  0C4C                     __end_of_ADC_Read_value:	
  2566                           
  2567                           	psect	text13
  2568  0E5E                     __ptext13:	
  2569 ;; *************** function _Heater_check_if_change_state_to_setup_or_off *****************
  2570 ;; Defined at:
  2571 ;;		line 541 in file "heater.c"
  2572 ;; Parameters:    Size  Location     Type
  2573 ;;		None
  2574 ;; Auto vars:     Size  Location     Type
  2575 ;;		None
  2576 ;; Return value:  Size  Location     Type
  2577 ;;                  1    wreg      void 
  2578 ;; Registers used:
  2579 ;;		wreg, fsr0l, fsr0h, status,2, status,0, pclath, cstack
  2580 ;; Tracked objects:
  2581 ;;		On entry : 0/0
  2582 ;;		On exit  : 0/0
  2583 ;;		Unchanged: 0/0
  2584 ;; Data sizes:     COMMON   BANK0   BANK1   BANK3   BANK2
  2585 ;;      Params:         0       0       0       0       0
  2586 ;;      Locals:         0       0       0       0       0
  2587 ;;      Temps:          0       1       0       0       0
  2588 ;;      Totals:         0       1       0       0       0
  2589 ;;Total ram usage:        1 bytes
  2590 ;; Hardware stack levels used:    1
  2591 ;; Hardware stack levels required when called:    6
  2592 ;; This function calls:
  2593 ;;		_Check_ON_Push_Button
  2594 ;;		_GPIO_WriteOnPin
  2595 ;;		_Heater_turn_off
  2596 ;; This function is called by:
  2597 ;;		_main
  2598 ;; This function uses a non-reentrant model
  2599 ;;
  2600                           
  2601                           
  2602                           ;psect for function _Heater_check_if_change_state_to_setup_or_off
  2603  0E5E                     _Heater_check_if_change_state_to_setup_or_off:	
  2604  0E5E                     l3625:	
  2605                           ;incstack = 0
  2606                           ; Regs used in _Heater_check_if_change_state_to_setup_or_off: [wreg-fsr0h+status,2+statu
      +                          s,0+pclath+cstack]
  2607                           
  2608                           
  2609                           ;heater.c: 544:     if(Check_ON_Push_Button(1u , 1u) == PUSH_BUTTON_IS_PRESSED ||
  2610  0E5E  1283               	bcf	3,5	;RP0=0, select bank0
  2611  0E5F  1303               	bcf	3,6	;RP1=0, select bank0
  2612  0E60  01A5               	clrf	Check_ON_Push_Button@a_u8Pin
  2613  0E61  0AA5               	incf	Check_ON_Push_Button@a_u8Pin,f
  2614  0E62  3001               	movlw	1
  2615  0E63  120A  158A  23B7  120A  158A  	fcall	_Check_ON_Push_Button
  2616  0E68  3A00               	xorlw	0
  2617  0E69  1903               	skipnz
  2618  0E6A  2E6C               	goto	u4071
  2619  0E6B  2E6D               	goto	u4070
  2620  0E6C                     u4071:	
  2621  0E6C  2E7E               	goto	l3629
  2622  0E6D                     u4070:	
  2623  0E6D                     l3627:	
  2624  0E6D  3002               	movlw	2
  2625  0E6E  1283               	bcf	3,5	;RP0=0, select bank0
  2626  0E6F  1303               	bcf	3,6	;RP1=0, select bank0
  2627  0E70  00AD               	movwf	??_Heater_check_if_change_state_to_setup_or_off
  2628  0E71  082D               	movf	??_Heater_check_if_change_state_to_setup_or_off,w
  2629  0E72  00A5               	movwf	Check_ON_Push_Button@a_u8Pin
  2630  0E73  3001               	movlw	1
  2631  0E74  120A  158A  23B7  120A  158A  	fcall	_Check_ON_Push_Button
  2632  0E79  3A00               	xorlw	0
  2633  0E7A  1D03               	skipz
  2634  0E7B  2E7D               	goto	u4081
  2635  0E7C  2E7E               	goto	u4080
  2636  0E7D                     u4081:	
  2637  0E7D  2EB1               	goto	l3641
  2638  0E7E                     u4080:	
  2639  0E7E                     l3629:	
  2640                           
  2641                           ;heater.c: 546:     {;heater.c: 548:         g_Heater_state_t = HEATER_SET_TEMERATURE;
  2642  0E7E  3002               	movlw	2
  2643  0E7F  1283               	bcf	3,5	;RP0=0, select bank0
  2644  0E80  1303               	bcf	3,6	;RP1=0, select bank0
  2645  0E81  00AD               	movwf	??_Heater_check_if_change_state_to_setup_or_off
  2646  0E82  082D               	movf	??_Heater_check_if_change_state_to_setup_or_off,w
  2647  0E83  00CF               	movwf	_g_Heater_state_t
  2648  0E84                     l3631:	
  2649                           
  2650                           ;heater.c: 550:         GPIO_WriteOnPin(2u , 5u , 0u);
  2651  0E84  3005               	movlw	5
  2652  0E85  00AD               	movwf	??_Heater_check_if_change_state_to_setup_or_off
  2653  0E86  082D               	movf	??_Heater_check_if_change_state_to_setup_or_off,w
  2654  0E87  00A0               	movwf	GPIO_WriteOnPin@a_u8pin
  2655  0E88  01A1               	clrf	GPIO_WriteOnPin@a_u8value
  2656  0E89  3002               	movlw	2
  2657  0E8A  120A  118A  2257  120A  158A  	fcall	_GPIO_WriteOnPin
  2658  0E8F                     l3633:	
  2659                           
  2660                           ;heater.c: 551:         GPIO_WriteOnPin(2u , 2u , 0u);
  2661  0E8F  3002               	movlw	2
  2662  0E90  1283               	bcf	3,5	;RP0=0, select bank0
  2663  0E91  1303               	bcf	3,6	;RP1=0, select bank0
  2664  0E92  00AD               	movwf	??_Heater_check_if_change_state_to_setup_or_off
  2665  0E93  082D               	movf	??_Heater_check_if_change_state_to_setup_or_off,w
  2666  0E94  00A0               	movwf	GPIO_WriteOnPin@a_u8pin
  2667  0E95  01A1               	clrf	GPIO_WriteOnPin@a_u8value
  2668  0E96  3002               	movlw	2
  2669  0E97  120A  118A  2257  120A  158A  	fcall	_GPIO_WriteOnPin
  2670  0E9C                     l3635:	
  2671                           
  2672                           ;heater.c: 552:         GPIO_WriteOnPin(1u , 7u , 0u);
  2673  0E9C  3007               	movlw	7
  2674  0E9D  1283               	bcf	3,5	;RP0=0, select bank0
  2675  0E9E  1303               	bcf	3,6	;RP1=0, select bank0
  2676  0E9F  00AD               	movwf	??_Heater_check_if_change_state_to_setup_or_off
  2677  0EA0  082D               	movf	??_Heater_check_if_change_state_to_setup_or_off,w
  2678  0EA1  00A0               	movwf	GPIO_WriteOnPin@a_u8pin
  2679  0EA2  01A1               	clrf	GPIO_WriteOnPin@a_u8value
  2680  0EA3  3001               	movlw	1
  2681  0EA4  120A  118A  2257  120A  158A  	fcall	_GPIO_WriteOnPin
  2682  0EA9                     l3637:	
  2683                           
  2684                           ;heater.c: 554:         g_u8Heater_real_time_temperature = g_u8Heater_wanted_temperature
      +                          ;
  2685  0EA9  1283               	bcf	3,5	;RP0=0, select bank0
  2686  0EAA  1303               	bcf	3,6	;RP1=0, select bank0
  2687  0EAB  085E               	movf	_g_u8Heater_wanted_temperature,w
  2688  0EAC  00AD               	movwf	??_Heater_check_if_change_state_to_setup_or_off
  2689  0EAD  082D               	movf	??_Heater_check_if_change_state_to_setup_or_off,w
  2690  0EAE  00DD               	movwf	_g_u8Heater_real_time_temperature
  2691  0EAF                     l3639:	
  2692                           
  2693                           ;heater.c: 555:         g_u8Sync_flag = 0;
  2694  0EAF  01CE               	clrf	_g_u8Sync_flag
  2695                           
  2696                           ;heater.c: 556:     }
  2697  0EB0  2EC4               	goto	l702
  2698  0EB1                     l3641:	
  2699  0EB1  1283               	bcf	3,5	;RP0=0, select bank0
  2700  0EB2  1303               	bcf	3,6	;RP1=0, select bank0
  2701  0EB3  01A5               	clrf	Check_ON_Push_Button@a_u8Pin
  2702  0EB4  3001               	movlw	1
  2703  0EB5  120A  158A  23B7  120A  158A  	fcall	_Check_ON_Push_Button
  2704  0EBA  3A00               	xorlw	0
  2705  0EBB  1D03               	skipz
  2706  0EBC  2EBE               	goto	u4091
  2707  0EBD  2EBF               	goto	u4090
  2708  0EBE                     u4091:	
  2709  0EBE  2EC4               	goto	l702
  2710  0EBF                     u4090:	
  2711  0EBF                     l3643:	
  2712                           
  2713                           ;heater.c: 559:     {;heater.c: 561:         Heater_turn_off();
  2714  0EBF  120A  158A  2796  120A  158A  	fcall	_Heater_turn_off
  2715  0EC4                     l702:	
  2716                           ;heater.c: 562:     }
  2717                           
  2718  0EC4  0008               	return
  2719  0EC5                     __end_of_Heater_check_if_change_state_to_setup_or_off:	
  2720                           
  2721                           	psect	text14
  2722  0CF0                     __ptext14:	
  2723 ;; *************** function _Heater_change_temperature *****************
  2724 ;; Defined at:
  2725 ;;		line 408 in file "heater.c"
  2726 ;; Parameters:    Size  Location     Type
  2727 ;;		None
  2728 ;; Auto vars:     Size  Location     Type
  2729 ;;		None
  2730 ;; Return value:  Size  Location     Type
  2731 ;;                  1    wreg      void 
  2732 ;; Registers used:
  2733 ;;		wreg, fsr0l, fsr0h, status,2, status,0, pclath, cstack
  2734 ;; Tracked objects:
  2735 ;;		On entry : 0/0
  2736 ;;		On exit  : 0/0
  2737 ;;		Unchanged: 0/0
  2738 ;; Data sizes:     COMMON   BANK0   BANK1   BANK3   BANK2
  2739 ;;      Params:         0       0       0       0       0
  2740 ;;      Locals:         0       0       0       0       0
  2741 ;;      Temps:          0       1       0       0       0
  2742 ;;      Totals:         0       1       0       0       0
  2743 ;;Total ram usage:        1 bytes
  2744 ;; Hardware stack levels used:    1
  2745 ;; Hardware stack levels required when called:    6
  2746 ;; This function calls:
  2747 ;;		_Check_ON_Push_Button
  2748 ;;		_Heater_turn_off
  2749 ;; This function is called by:
  2750 ;;		_main
  2751 ;; This function uses a non-reentrant model
  2752 ;;
  2753                           
  2754                           
  2755                           ;psect for function _Heater_change_temperature
  2756  0CF0                     _Heater_change_temperature:	
  2757  0CF0                     l3657:	
  2758                           ;incstack = 0
  2759                           ; Regs used in _Heater_change_temperature: [wreg-fsr0h+status,2+status,0+pclath+cstack]
  2760                           
  2761                           
  2762                           ;heater.c: 411:     if(Check_ON_Push_Button(1u , 1u) == PUSH_BUTTON_IS_PRESSED)
  2763  0CF0  1283               	bcf	3,5	;RP0=0, select bank0
  2764  0CF1  1303               	bcf	3,6	;RP1=0, select bank0
  2765  0CF2  01A5               	clrf	Check_ON_Push_Button@a_u8Pin
  2766  0CF3  0AA5               	incf	Check_ON_Push_Button@a_u8Pin,f
  2767  0CF4  3001               	movlw	1
  2768  0CF5  120A  158A  23B7  120A  158A  	fcall	_Check_ON_Push_Button
  2769  0CFA  3A00               	xorlw	0
  2770  0CFB  1D03               	skipz
  2771  0CFC  2CFE               	goto	u4131
  2772  0CFD  2CFF               	goto	u4130
  2773  0CFE                     u4131:	
  2774  0CFE  2D10               	goto	l3667
  2775  0CFF                     u4130:	
  2776  0CFF                     l3659:	
  2777                           
  2778                           ;heater.c: 412:     {;heater.c: 414:         g_u8End_setup_state = 0;
  2779  0CFF  01FA               	clrf	_g_u8End_setup_state
  2780                           
  2781                           ;heater.c: 416:         g_u8Display_blank_counter = 0;
  2782  0D00  1283               	bcf	3,5	;RP0=0, select bank0
  2783  0D01  1303               	bcf	3,6	;RP1=0, select bank0
  2784  0D02  01CA               	clrf	_g_u8Display_blank_counter
  2785  0D03                     l3661:	
  2786                           
  2787                           ;heater.c: 418:         if(g_u8Heater_wanted_temperature > 35u)
  2788  0D03  3024               	movlw	36
  2789  0D04  025E               	subwf	_g_u8Heater_wanted_temperature,w
  2790  0D05  1C03               	skipc
  2791  0D06  2D08               	goto	u4141
  2792  0D07  2D09               	goto	u4140
  2793  0D08                     u4141:	
  2794  0D08  2D43               	goto	l680
  2795  0D09                     u4140:	
  2796  0D09                     l3663:	
  2797                           
  2798                           ;heater.c: 419:         {;heater.c: 421:             g_u8Heater_wanted_temperature -= 5;
  2799  0D09  3005               	movlw	5
  2800  0D0A  02DE               	subwf	_g_u8Heater_wanted_temperature,f
  2801  0D0B                     l3665:	
  2802                           
  2803                           ;heater.c: 423:             g_u8Heater_real_time_temperature = g_u8Heater_wanted_tempera
      +                          ture;
  2804  0D0B  085E               	movf	_g_u8Heater_wanted_temperature,w
  2805  0D0C  00AD               	movwf	??_Heater_change_temperature
  2806  0D0D  082D               	movf	??_Heater_change_temperature,w
  2807  0D0E  00DD               	movwf	_g_u8Heater_real_time_temperature
  2808                           
  2809                           ;heater.c: 424:         }
  2810  0D0F  2D43               	goto	l680
  2811  0D10                     l3667:	
  2812  0D10  3002               	movlw	2
  2813  0D11  1283               	bcf	3,5	;RP0=0, select bank0
  2814  0D12  1303               	bcf	3,6	;RP1=0, select bank0
  2815  0D13  00AD               	movwf	??_Heater_change_temperature
  2816  0D14  082D               	movf	??_Heater_change_temperature,w
  2817  0D15  00A5               	movwf	Check_ON_Push_Button@a_u8Pin
  2818  0D16  3001               	movlw	1
  2819  0D17  120A  158A  23B7  120A  158A  	fcall	_Check_ON_Push_Button
  2820  0D1C  3A00               	xorlw	0
  2821  0D1D  1D03               	skipz
  2822  0D1E  2D20               	goto	u4151
  2823  0D1F  2D21               	goto	u4150
  2824  0D20                     u4151:	
  2825  0D20  2D30               	goto	l3677
  2826  0D21                     u4150:	
  2827  0D21                     l3669:	
  2828                           
  2829                           ;heater.c: 432:     {;heater.c: 434:         g_u8End_setup_state = 0;
  2830  0D21  01FA               	clrf	_g_u8End_setup_state
  2831                           
  2832                           ;heater.c: 436:         g_u8Display_blank_counter = 0;
  2833  0D22  1283               	bcf	3,5	;RP0=0, select bank0
  2834  0D23  1303               	bcf	3,6	;RP1=0, select bank0
  2835  0D24  01CA               	clrf	_g_u8Display_blank_counter
  2836  0D25                     l3671:	
  2837                           
  2838                           ;heater.c: 438:         if(g_u8Heater_wanted_temperature < 75u)
  2839  0D25  304B               	movlw	75
  2840  0D26  025E               	subwf	_g_u8Heater_wanted_temperature,w
  2841  0D27  1803               	skipnc
  2842  0D28  2D2A               	goto	u4161
  2843  0D29  2D2B               	goto	u4160
  2844  0D2A                     u4161:	
  2845  0D2A  2D43               	goto	l680
  2846  0D2B                     u4160:	
  2847  0D2B                     l3673:	
  2848                           
  2849                           ;heater.c: 439:         {;heater.c: 441:             g_u8Heater_wanted_temperature += 5;
  2850  0D2B  3005               	movlw	5
  2851  0D2C  00AD               	movwf	??_Heater_change_temperature
  2852  0D2D  082D               	movf	??_Heater_change_temperature,w
  2853  0D2E  07DE               	addwf	_g_u8Heater_wanted_temperature,f
  2854  0D2F  2D0B               	goto	l3665
  2855  0D30                     l3677:	
  2856  0D30  1283               	bcf	3,5	;RP0=0, select bank0
  2857  0D31  1303               	bcf	3,6	;RP1=0, select bank0
  2858  0D32  01A5               	clrf	Check_ON_Push_Button@a_u8Pin
  2859  0D33  3001               	movlw	1
  2860  0D34  120A  158A  23B7  120A  158A  	fcall	_Check_ON_Push_Button
  2861  0D39  3A00               	xorlw	0
  2862  0D3A  1D03               	skipz
  2863  0D3B  2D3D               	goto	u4171
  2864  0D3C  2D3E               	goto	u4170
  2865  0D3D                     u4171:	
  2866  0D3D  2D43               	goto	l680
  2867  0D3E                     u4170:	
  2868  0D3E                     l3679:	
  2869                           
  2870                           ;heater.c: 452:     {;heater.c: 454:         Heater_turn_off();
  2871  0D3E  120A  158A  2796  120A  158A  	fcall	_Heater_turn_off
  2872  0D43                     l680:	
  2873                           ;heater.c: 455:     }
  2874                           
  2875  0D43  0008               	return
  2876  0D44                     __end_of_Heater_change_temperature:	
  2877                           
  2878                           	psect	text15
  2879  0F96                     __ptext15:	
  2880 ;; *************** function _Heater_turn_off *****************
  2881 ;; Defined at:
  2882 ;;		line 84 in file "heater.c"
  2883 ;; Parameters:    Size  Location     Type
  2884 ;;		None
  2885 ;; Auto vars:     Size  Location     Type
  2886 ;;  counter         1   12[BANK0 ] unsigned char 
  2887 ;; Return value:  Size  Location     Type
  2888 ;;                  1    wreg      void 
  2889 ;; Registers used:
  2890 ;;		wreg, fsr0l, fsr0h, status,2, status,0, pclath, cstack
  2891 ;; Tracked objects:
  2892 ;;		On entry : 0/0
  2893 ;;		On exit  : 0/0
  2894 ;;		Unchanged: 0/0
  2895 ;; Data sizes:     COMMON   BANK0   BANK1   BANK3   BANK2
  2896 ;;      Params:         0       0       0       0       0
  2897 ;;      Locals:         0       1       0       0       0
  2898 ;;      Temps:          0       1       0       0       0
  2899 ;;      Totals:         0       2       0       0       0
  2900 ;;Total ram usage:        2 bytes
  2901 ;; Hardware stack levels used:    1
  2902 ;; Hardware stack levels required when called:    5
  2903 ;; This function calls:
  2904 ;;		_EEPROM_Save_Byte
  2905 ;;		_GPIO_WriteOnPin
  2906 ;;		_Peripherals_interrupt_disable
  2907 ;;		_SevenSegment_SelectChip
  2908 ;;		_Timer1_disable
  2909 ;; This function is called by:
  2910 ;;		_Heater_change_temperature
  2911 ;;		_Heater_check_if_change_state_to_setup_or_off
  2912 ;; This function uses a non-reentrant model
  2913 ;;
  2914                           
  2915                           
  2916                           ;psect for function _Heater_turn_off
  2917  0F96                     _Heater_turn_off:	
  2918  0F96                     l3479:	
  2919                           ;incstack = 0
  2920                           ; Regs used in _Heater_turn_off: [wreg-fsr0h+status,2+status,0+pclath+cstack]
  2921                           
  2922                           
  2923                           ;heater.c: 87:     SevenSegment_SelectChip(SEVEN_SEGMENT_DISABLE_CHIP , SEVEN_SEGMENT_DI
      +                          SABLE_CHIP ,
  2924  0F96  1283               	bcf	3,5	;RP0=0, select bank0
  2925  0F97  1303               	bcf	3,6	;RP1=0, select bank0
  2926  0F98  01A6               	clrf	SevenSegment_SelectChip@a_Chip2
  2927  0F99  0AA6               	incf	SevenSegment_SelectChip@a_Chip2,f
  2928  0F9A  01A7               	clrf	SevenSegment_SelectChip@a_Chip3
  2929  0F9B  0AA7               	incf	SevenSegment_SelectChip@a_Chip3,f
  2930  0F9C  01A8               	clrf	SevenSegment_SelectChip@a_Chip4
  2931  0F9D  0AA8               	incf	SevenSegment_SelectChip@a_Chip4,f
  2932  0F9E  3001               	movlw	1
  2933  0F9F  120A  118A  241E  120A  158A  	fcall	_SevenSegment_SelectChip
  2934                           
  2935                           ;heater.c: 90:     GPIO_WriteOnPin(2u , 2u , 0u);
  2936  0FA4  3002               	movlw	2
  2937  0FA5  1283               	bcf	3,5	;RP0=0, select bank0
  2938  0FA6  1303               	bcf	3,6	;RP1=0, select bank0
  2939  0FA7  00AB               	movwf	??_Heater_turn_off
  2940  0FA8  082B               	movf	??_Heater_turn_off,w
  2941  0FA9  00A0               	movwf	GPIO_WriteOnPin@a_u8pin
  2942  0FAA  01A1               	clrf	GPIO_WriteOnPin@a_u8value
  2943  0FAB  3002               	movlw	2
  2944  0FAC  120A  118A  2257  120A  158A  	fcall	_GPIO_WriteOnPin
  2945                           
  2946                           ;heater.c: 92:     GPIO_WriteOnPin(2u , 5u , 0u);
  2947  0FB1  3005               	movlw	5
  2948  0FB2  1283               	bcf	3,5	;RP0=0, select bank0
  2949  0FB3  1303               	bcf	3,6	;RP1=0, select bank0
  2950  0FB4  00AB               	movwf	??_Heater_turn_off
  2951  0FB5  082B               	movf	??_Heater_turn_off,w
  2952  0FB6  00A0               	movwf	GPIO_WriteOnPin@a_u8pin
  2953  0FB7  01A1               	clrf	GPIO_WriteOnPin@a_u8value
  2954  0FB8  3002               	movlw	2
  2955  0FB9  120A  118A  2257  120A  158A  	fcall	_GPIO_WriteOnPin
  2956                           
  2957                           ;heater.c: 94:     GPIO_WriteOnPin(1u , 7u , 0u);
  2958  0FBE  3007               	movlw	7
  2959  0FBF  1283               	bcf	3,5	;RP0=0, select bank0
  2960  0FC0  1303               	bcf	3,6	;RP1=0, select bank0
  2961  0FC1  00AB               	movwf	??_Heater_turn_off
  2962  0FC2  082B               	movf	??_Heater_turn_off,w
  2963  0FC3  00A0               	movwf	GPIO_WriteOnPin@a_u8pin
  2964  0FC4  01A1               	clrf	GPIO_WriteOnPin@a_u8value
  2965  0FC5  3001               	movlw	1
  2966  0FC6  120A  118A  2257  120A  158A  	fcall	_GPIO_WriteOnPin
  2967  0FCB                     l3481:	
  2968                           
  2969                           ;heater.c: 96:     EEPROM_Save_Byte(0u , g_u8Heater_wanted_temperature);
  2970  0FCB  3000               	movlw	0
  2971  0FCC  1283               	bcf	3,5	;RP0=0, select bank0
  2972  0FCD  1303               	bcf	3,6	;RP1=0, select bank0
  2973  0FCE  00A5               	movwf	EEPROM_Save_Byte@a_u16Location
  2974  0FCF  00A6               	movwf	EEPROM_Save_Byte@a_u16Location+1
  2975  0FD0  085E               	movf	_g_u8Heater_wanted_temperature,w
  2976  0FD1  00AB               	movwf	??_Heater_turn_off
  2977  0FD2  082B               	movf	??_Heater_turn_off,w
  2978  0FD3  00A7               	movwf	EEPROM_Save_Byte@a_u8Data
  2979  0FD4  120A  158A  2135  120A  158A  	fcall	_EEPROM_Save_Byte
  2980  0FD9                     l3483:	
  2981                           
  2982                           ;heater.c: 98:     Peripherals_interrupt_disable();
  2983  0FD9  120A  158A  2039  120A  158A  	fcall	_Peripherals_interrupt_disable
  2984  0FDE                     l3485:	
  2985                           
  2986                           ;heater.c: 100:     Timer1_disable();
  2987  0FDE  120A  118A  27F9  120A  158A  	fcall	_Timer1_disable
  2988  0FE3                     l3487:	
  2989                           
  2990                           ;heater.c: 102:     g_u8Sync_flag = 0;
  2991  0FE3  1283               	bcf	3,5	;RP0=0, select bank0
  2992  0FE4  1303               	bcf	3,6	;RP1=0, select bank0
  2993  0FE5  01CE               	clrf	_g_u8Sync_flag
  2994  0FE6                     l3489:	
  2995                           
  2996                           ;heater.c: 103:     g_u8calculate_temperature_flag = 0;
  2997  0FE6  01CD               	clrf	_g_u8calculate_temperature_flag
  2998  0FE7                     l3491:	
  2999                           
  3000                           ;heater.c: 104:     g_u16Sum_of_ten_readings = 0;
  3001  0FE7  01C7               	clrf	_g_u16Sum_of_ten_readings
  3002  0FE8  01C8               	clrf	_g_u16Sum_of_ten_readings+1
  3003  0FE9                     l3493:	
  3004                           
  3005                           ;heater.c: 105:     g_u8Reading_counter = 0;
  3006  0FE9  01CC               	clrf	_g_u8Reading_counter
  3007  0FEA                     l3495:	
  3008                           
  3009                           ;heater.c: 106:     g_u8Reading_deleted_element = 0;
  3010  0FEA  01CB               	clrf	_g_u8Reading_deleted_element
  3011  0FEB                     l3497:	
  3012                           
  3013                           ;heater.c: 107:     g_u8Display_blank_counter = 0;
  3014  0FEB  01CA               	clrf	_g_u8Display_blank_counter
  3015  0FEC                     l3499:	
  3016                           
  3017                           ;heater.c: 108:     g_u8End_setup_state = 0;
  3018  0FEC  01FA               	clrf	_g_u8End_setup_state
  3019  0FED                     l3501:	
  3020                           
  3021                           ;heater.c: 109:     g_u8Led_blank_counter = 0;
  3022  0FED  01C9               	clrf	_g_u8Led_blank_counter
  3023  0FEE                     l3503:	
  3024                           
  3025                           ;heater.c: 111:     for(uint8 counter = 0; counter < 10; counter++)
  3026  0FEE  01AC               	clrf	Heater_turn_off@counter
  3027  0FEF                     l3509:	
  3028                           
  3029                           ;heater.c: 112:     {;heater.c: 113:         g_u8Reading_arr[counter] = 0;
  3030  0FEF  082C               	movf	Heater_turn_off@counter,w
  3031  0FF0  3E3D               	addlw	(low (_g_u8Reading_arr| 0))& (0+255)
  3032  0FF1  0084               	movwf	4
  3033  0FF2  1383               	bcf	3,7	;select IRP bank0
  3034  0FF3  0180               	clrf	0
  3035  0FF4                     l3511:	
  3036                           
  3037                           ;heater.c: 114:     }
  3038  0FF4  3001               	movlw	1
  3039  0FF5  00AB               	movwf	??_Heater_turn_off
  3040  0FF6  082B               	movf	??_Heater_turn_off,w
  3041  0FF7  07AC               	addwf	Heater_turn_off@counter,f
  3042  0FF8                     l3513:	
  3043  0FF8  300A               	movlw	10
  3044  0FF9  022C               	subwf	Heater_turn_off@counter,w
  3045  0FFA  1C03               	skipc
  3046  0FFB  2FFD               	goto	u3961
  3047  0FFC  2FFE               	goto	u3960
  3048  0FFD                     u3961:	
  3049  0FFD  2FEF               	goto	l3509
  3050  0FFE                     u3960:	
  3051  0FFE                     l3515:	
  3052                           
  3053                           ;heater.c: 116:     g_Heater_state_t = HEATER_OFF_STATE;
  3054  0FFE  01CF               	clrf	_g_Heater_state_t
  3055  0FFF                     l625:	
  3056  0FFF  0008               	return
  3057  1000                     __end_of_Heater_turn_off:	
  3058                           
  3059                           	psect	text16
  3060  07F9                     __ptext16:	
  3061 ;; *************** function _Timer1_disable *****************
  3062 ;; Defined at:
  3063 ;;		line 196 in file "timers.c"
  3064 ;; Parameters:    Size  Location     Type
  3065 ;;		None
  3066 ;; Auto vars:     Size  Location     Type
  3067 ;;		None
  3068 ;; Return value:  Size  Location     Type
  3069 ;;                  1    wreg      void 
  3070 ;; Registers used:
  3071 ;;		wreg, status,2, status,0
  3072 ;; Tracked objects:
  3073 ;;		On entry : 0/0
  3074 ;;		On exit  : 0/0
  3075 ;;		Unchanged: 0/0
  3076 ;; Data sizes:     COMMON   BANK0   BANK1   BANK3   BANK2
  3077 ;;      Params:         0       0       0       0       0
  3078 ;;      Locals:         0       0       0       0       0
  3079 ;;      Temps:          0       1       0       0       0
  3080 ;;      Totals:         0       1       0       0       0
  3081 ;;Total ram usage:        1 bytes
  3082 ;; Hardware stack levels used:    1
  3083 ;; Hardware stack levels required when called:    3
  3084 ;; This function calls:
  3085 ;;		Nothing
  3086 ;; This function is called by:
  3087 ;;		_Heater_turn_off
  3088 ;; This function uses a non-reentrant model
  3089 ;;
  3090                           
  3091                           
  3092                           ;psect for function _Timer1_disable
  3093  07F9                     _Timer1_disable:	
  3094  07F9                     l3149:	
  3095                           ;incstack = 0
  3096                           ; Regs used in _Timer1_disable: [wreg+status,2+status,0]
  3097                           
  3098                           
  3099                           ;timers.c: 198:     *(volatile uint8*)0x10 &= ~(1 << 0u);
  3100  07F9  30FE               	movlw	254
  3101  07FA  1283               	bcf	3,5	;RP0=0, select bank0
  3102  07FB  1303               	bcf	3,6	;RP1=0, select bank0
  3103  07FC  00A0               	movwf	??_Timer1_disable
  3104  07FD  0820               	movf	??_Timer1_disable,w
  3105  07FE  0590               	andwf	16,f	;volatile
  3106  07FF                     l528:	
  3107  07FF  0008               	return
  3108  0800                     __end_of_Timer1_disable:	
  3109                           
  3110                           	psect	text17
  3111  0839                     __ptext17:	
  3112 ;; *************** function _Peripherals_interrupt_disable *****************
  3113 ;; Defined at:
  3114 ;;		line 967 in file "interrupt.c"
  3115 ;; Parameters:    Size  Location     Type
  3116 ;;		None
  3117 ;; Auto vars:     Size  Location     Type
  3118 ;;		None
  3119 ;; Return value:  Size  Location     Type
  3120 ;;                  1    wreg      void 
  3121 ;; Registers used:
  3122 ;;		wreg, status,2, status,0
  3123 ;; Tracked objects:
  3124 ;;		On entry : 0/0
  3125 ;;		On exit  : 0/0
  3126 ;;		Unchanged: 0/0
  3127 ;; Data sizes:     COMMON   BANK0   BANK1   BANK3   BANK2
  3128 ;;      Params:         0       0       0       0       0
  3129 ;;      Locals:         0       0       0       0       0
  3130 ;;      Temps:          0       1       0       0       0
  3131 ;;      Totals:         0       1       0       0       0
  3132 ;;Total ram usage:        1 bytes
  3133 ;; Hardware stack levels used:    1
  3134 ;; Hardware stack levels required when called:    3
  3135 ;; This function calls:
  3136 ;;		Nothing
  3137 ;; This function is called by:
  3138 ;;		_Heater_turn_off
  3139 ;; This function uses a non-reentrant model
  3140 ;;
  3141                           
  3142                           
  3143                           ;psect for function _Peripherals_interrupt_disable
  3144  0839                     _Peripherals_interrupt_disable:	
  3145  0839                     l3113:	
  3146                           ;incstack = 0
  3147                           ; Regs used in _Peripherals_interrupt_disable: [wreg+status,2+status,0]
  3148                           
  3149                           
  3150                           ;interrupt.c: 969:     *(volatile uint8*)0x0B &= ~(1 << 6u);
  3151  0839  30BF               	movlw	191
  3152  083A  1283               	bcf	3,5	;RP0=0, select bank0
  3153  083B  1303               	bcf	3,6	;RP1=0, select bank0
  3154  083C  00A0               	movwf	??_Peripherals_interrupt_disable
  3155  083D  0820               	movf	??_Peripherals_interrupt_disable,w
  3156  083E  058B               	andwf	11,f	;volatile
  3157  083F                     l424:	
  3158  083F  0008               	return
  3159  0840                     __end_of_Peripherals_interrupt_disable:	
  3160                           
  3161                           	psect	text18
  3162  0935                     __ptext18:	
  3163 ;; *************** function _EEPROM_Save_Byte *****************
  3164 ;; Defined at:
  3165 ;;		line 54 in file "EEPROM24c04.c"
  3166 ;; Parameters:    Size  Location     Type
  3167 ;;  a_u16Locatio    2    5[BANK0 ] unsigned short 
  3168 ;;  a_u8Data        1    7[BANK0 ] unsigned char 
  3169 ;; Auto vars:     Size  Location     Type
  3170 ;;		None
  3171 ;; Return value:  Size  Location     Type
  3172 ;;                  1    wreg      void 
  3173 ;; Registers used:
  3174 ;;		wreg, status,2, status,0, pclath, cstack
  3175 ;; Tracked objects:
  3176 ;;		On entry : 0/0
  3177 ;;		On exit  : 0/0
  3178 ;;		Unchanged: 0/0
  3179 ;; Data sizes:     COMMON   BANK0   BANK1   BANK3   BANK2
  3180 ;;      Params:         0       3       0       0       0
  3181 ;;      Locals:         0       0       0       0       0
  3182 ;;      Temps:          0       0       0       0       0
  3183 ;;      Totals:         0       3       0       0       0
  3184 ;;Total ram usage:        3 bytes
  3185 ;; Hardware stack levels used:    1
  3186 ;; Hardware stack levels required when called:    4
  3187 ;; This function calls:
  3188 ;;		_I2C_master_send_address
  3189 ;;		_I2C_master_send_data
  3190 ;;		_I2C_master_send_start_condition
  3191 ;;		_I2C_master_send_stop_condition
  3192 ;; This function is called by:
  3193 ;;		_EEPROM_Read_Byte
  3194 ;;		_Heater_turn_off
  3195 ;;		_EEPROM_Read_Array
  3196 ;; This function uses a non-reentrant model
  3197 ;;
  3198                           
  3199                           
  3200                           ;psect for function _EEPROM_Save_Byte
  3201  0935                     _EEPROM_Save_Byte:	
  3202  0935                     l2987:	
  3203                           ;incstack = 0
  3204                           ; Regs used in _EEPROM_Save_Byte: [wreg+status,2+status,0+pclath+cstack]
  3205                           
  3206                           
  3207                           ;EEPROM24c04.c: 54: void EEPROM_Save_Byte(uint16 a_u16Location , uint8 a_u8Data);EEPROM2
      +                          4c04.c: 55: {;EEPROM24c04.c: 57:     I2C_master_send_start_condition();
  3208  0935  120A  158A  2188  120A  158A  	fcall	_I2C_master_send_start_condition
  3209                           
  3210                           ;EEPROM24c04.c: 59:     I2C_master_send_address((0x50 | ((a_u16Location >> 8) & 0x0001))
      +                          , I2C_WRITE_OPERATION);
  3211  093A  1283               	bcf	3,5	;RP0=0, select bank0
  3212  093B  1303               	bcf	3,6	;RP1=0, select bank0
  3213  093C  01A0               	clrf	I2C_master_send_address@a_I2C_operaton_t
  3214  093D  0826               	movf	EEPROM_Save_Byte@a_u16Location+1,w
  3215  093E  3901               	andlw	1
  3216  093F  3850               	iorlw	80
  3217  0940  120A  158A  221C  120A  158A  	fcall	_I2C_master_send_address
  3218                           
  3219                           ;EEPROM24c04.c: 61:     I2C_master_send_data((uint8)(a_u16Location & 0x00FF));
  3220  0945  1283               	bcf	3,5	;RP0=0, select bank0
  3221  0946  1303               	bcf	3,6	;RP1=0, select bank0
  3222  0947  0825               	movf	EEPROM_Save_Byte@a_u16Location,w
  3223  0948  120A  158A  215B  120A  158A  	fcall	_I2C_master_send_data
  3224                           
  3225                           ;EEPROM24c04.c: 63:     I2C_master_send_data(a_u8Data);
  3226  094D  1283               	bcf	3,5	;RP0=0, select bank0
  3227  094E  1303               	bcf	3,6	;RP1=0, select bank0
  3228  094F  0827               	movf	EEPROM_Save_Byte@a_u8Data,w
  3229  0950  120A  158A  215B  120A  158A  	fcall	_I2C_master_send_data
  3230                           
  3231                           ;EEPROM24c04.c: 65:     I2C_master_send_stop_condition();
  3232  0955  120A  158A  20ED  120A  158A  	fcall	_I2C_master_send_stop_condition
  3233  095A                     l96:	
  3234  095A  0008               	return
  3235  095B                     __end_of_EEPROM_Save_Byte:	
  3236                           
  3237                           	psect	text19
  3238  08ED                     __ptext19:	
  3239 ;; *************** function _I2C_master_send_stop_condition *****************
  3240 ;; Defined at:
  3241 ;;		line 114 in file "I2C.c"
  3242 ;; Parameters:    Size  Location     Type
  3243 ;;		None
  3244 ;; Auto vars:     Size  Location     Type
  3245 ;;		None
  3246 ;; Return value:  Size  Location     Type
  3247 ;;                  1    wreg      void 
  3248 ;; Registers used:
  3249 ;;		wreg, status,2, status,0
  3250 ;; Tracked objects:
  3251 ;;		On entry : 0/0
  3252 ;;		On exit  : 0/0
  3253 ;;		Unchanged: 0/0
  3254 ;; Data sizes:     COMMON   BANK0   BANK1   BANK3   BANK2
  3255 ;;      Params:         0       0       0       0       0
  3256 ;;      Locals:         0       0       0       0       0
  3257 ;;      Temps:          0       1       0       0       0
  3258 ;;      Totals:         0       1       0       0       0
  3259 ;;Total ram usage:        1 bytes
  3260 ;; Hardware stack levels used:    1
  3261 ;; Hardware stack levels required when called:    3
  3262 ;; This function calls:
  3263 ;;		Nothing
  3264 ;; This function is called by:
  3265 ;;		_EEPROM_Save_Byte
  3266 ;;		_EEPROM_Read_Byte
  3267 ;;		_EEPROM_Save_Array
  3268 ;;		_EEPROM_Read_Array
  3269 ;;		_EEPROM_Save_Page
  3270 ;;		_EEPROM_Erase
  3271 ;; This function uses a non-reentrant model
  3272 ;;
  3273                           
  3274                           
  3275                           ;psect for function _I2C_master_send_stop_condition
  3276  08ED                     _I2C_master_send_stop_condition:	
  3277  08ED                     l2747:	
  3278                           ;incstack = 0
  3279                           ; Regs used in _I2C_master_send_stop_condition: [wreg+status,2+status,0]
  3280                           
  3281                           
  3282                           ;I2C.c: 117:     *(volatile uint8*)0x91 |= 1 << 2u;
  3283  08ED  1683               	bsf	3,5	;RP0=1, select bank1
  3284  08EE  1303               	bcf	3,6	;RP1=0, select bank1
  3285  08EF  1511               	bsf	17,2	;volatile
  3286  08F0                     l2749:	
  3287                           ;I2C.c: 119:     while(((*(volatile uint8*)0x91 >> 2u) & 0x01));
  3288                           
  3289  08F0  1683               	bsf	3,5	;RP0=1, select bank1
  3290  08F1  1303               	bcf	3,6	;RP1=0, select bank1
  3291  08F2  0811               	movf	17,w	;volatile
  3292  08F3  1283               	bcf	3,5	;RP0=0, select bank0
  3293  08F4  1303               	bcf	3,6	;RP1=0, select bank0
  3294  08F5  00A0               	movwf	??_I2C_master_send_stop_condition
  3295  08F6  3002               	movlw	2
  3296  08F7                     u2405:	
  3297  08F7  1003               	clrc
  3298  08F8  0CA0               	rrf	??_I2C_master_send_stop_condition,f
  3299  08F9  3EFF               	addlw	-1
  3300  08FA  1D03               	skipz
  3301  08FB  28F7               	goto	u2405
  3302  08FC  1820               	btfsc	??_I2C_master_send_stop_condition,0
  3303  08FD  28FF               	goto	u2411
  3304  08FE  2900               	goto	u2410
  3305  08FF                     u2411:	
  3306  08FF  28F0               	goto	l2749
  3307  0900                     u2410:	
  3308  0900                     l2751:	
  3309                           
  3310                           ;I2C.c: 121:     if(((*(volatile uint8*)0x14 >> 7u) & 0x01))
  3311  0900  0814               	movf	20,w	;volatile
  3312  0901  00A0               	movwf	??_I2C_master_send_stop_condition
  3313  0902  3007               	movlw	7
  3314  0903                     u2425:	
  3315  0903  1003               	clrc
  3316  0904  0CA0               	rrf	??_I2C_master_send_stop_condition,f
  3317  0905  3EFF               	addlw	-1
  3318  0906  1D03               	skipz
  3319  0907  2903               	goto	u2425
  3320  0908  1C20               	btfss	??_I2C_master_send_stop_condition,0
  3321  0909  290B               	goto	u2431
  3322  090A  290C               	goto	u2430
  3323  090B                     u2431:	
  3324  090B  2910               	goto	l339
  3325  090C                     u2430:	
  3326  090C                     l2753:	
  3327                           
  3328                           ;I2C.c: 122:     {;I2C.c: 123:         *(volatile uint8*)0x14 &= ~(1 << 7u);
  3329  090C  307F               	movlw	127
  3330  090D  00A0               	movwf	??_I2C_master_send_stop_condition
  3331  090E  0820               	movf	??_I2C_master_send_stop_condition,w
  3332  090F  0594               	andwf	20,f	;volatile
  3333  0910                     l339:	
  3334                           ;I2C.c: 124:     }
  3335                           
  3336  0910  0008               	return
  3337  0911                     __end_of_I2C_master_send_stop_condition:	
  3338                           
  3339                           	psect	text20
  3340  0988                     __ptext20:	
  3341 ;; *************** function _I2C_master_send_start_condition *****************
  3342 ;; Defined at:
  3343 ;;		line 82 in file "I2C.c"
  3344 ;; Parameters:    Size  Location     Type
  3345 ;;		None
  3346 ;; Auto vars:     Size  Location     Type
  3347 ;;		None
  3348 ;; Return value:  Size  Location     Type
  3349 ;;                  1    wreg      void 
  3350 ;; Registers used:
  3351 ;;		wreg, status,2, status,0
  3352 ;; Tracked objects:
  3353 ;;		On entry : 0/0
  3354 ;;		On exit  : 0/0
  3355 ;;		Unchanged: 0/0
  3356 ;; Data sizes:     COMMON   BANK0   BANK1   BANK3   BANK2
  3357 ;;      Params:         0       0       0       0       0
  3358 ;;      Locals:         0       0       0       0       0
  3359 ;;      Temps:          0       1       0       0       0
  3360 ;;      Totals:         0       1       0       0       0
  3361 ;;Total ram usage:        1 bytes
  3362 ;; Hardware stack levels used:    1
  3363 ;; Hardware stack levels required when called:    3
  3364 ;; This function calls:
  3365 ;;		Nothing
  3366 ;; This function is called by:
  3367 ;;		_EEPROM_Save_Byte
  3368 ;;		_EEPROM_Read_Byte
  3369 ;;		_EEPROM_Save_Array
  3370 ;;		_EEPROM_Read_Array
  3371 ;;		_EEPROM_Save_Page
  3372 ;;		_EEPROM_Erase
  3373 ;; This function uses a non-reentrant model
  3374 ;;
  3375                           
  3376                           
  3377                           ;psect for function _I2C_master_send_start_condition
  3378  0988                     _I2C_master_send_start_condition:	
  3379  0988                     l2711:	
  3380                           ;incstack = 0
  3381                           ; Regs used in _I2C_master_send_start_condition: [wreg+status,2+status,0]
  3382                           
  3383                           
  3384                           ;I2C.c: 85:     if((((*(volatile uint8*)0x94 >> 2u) & 0x01) || (*(volatile uint8*)0x91 &
      +                           0x1F)) == 0)
  3385  0988  1683               	bsf	3,5	;RP0=1, select bank1
  3386  0989  1303               	bcf	3,6	;RP1=0, select bank1
  3387  098A  0814               	movf	20,w	;volatile
  3388  098B  1283               	bcf	3,5	;RP0=0, select bank0
  3389  098C  1303               	bcf	3,6	;RP1=0, select bank0
  3390  098D  00A0               	movwf	??_I2C_master_send_start_condition
  3391  098E  3002               	movlw	2
  3392  098F                     u2255:	
  3393  098F  1003               	clrc
  3394  0990  0CA0               	rrf	??_I2C_master_send_start_condition,f
  3395  0991  3EFF               	addlw	-1
  3396  0992  1D03               	skipz
  3397  0993  298F               	goto	u2255
  3398  0994  1820               	btfsc	??_I2C_master_send_start_condition,0
  3399  0995  2997               	goto	u2261
  3400  0996  2998               	goto	u2260
  3401  0997                     u2261:	
  3402  0997  29A5               	goto	l2717
  3403  0998                     u2260:	
  3404  0998                     l2713:	
  3405  0998  1683               	bsf	3,5	;RP0=1, select bank1
  3406  0999  1303               	bcf	3,6	;RP1=0, select bank1
  3407  099A  0811               	movf	17,w	;volatile
  3408  099B  391F               	andlw	31
  3409  099C  1D03               	btfss	3,2
  3410  099D  299F               	goto	u2271
  3411  099E  29A0               	goto	u2270
  3412  099F                     u2271:	
  3413  099F  29A5               	goto	l2717
  3414  09A0                     u2270:	
  3415  09A0                     l2715:	
  3416                           
  3417                           ;I2C.c: 86:     {;I2C.c: 88:         *(volatile uint8*)0x91 |= 1 << 0u;
  3418  09A0  1411               	bsf	17,0	;volatile
  3419  09A1                     l326:	
  3420                           ;I2C.c: 90:         while(((*(volatile uint8*)0x91 >> 0u) & 0x01));
  3421                           
  3422  09A1  1811               	btfsc	17,0	;volatile
  3423  09A2  29A4               	goto	u2281
  3424  09A3  29A5               	goto	u2280
  3425  09A4                     u2281:	
  3426  09A4  29A1               	goto	l326
  3427  09A5                     u2280:	
  3428  09A5                     l2717:	
  3429                           
  3430                           ;I2C.c: 93:     if(((*(volatile uint8*)0x14 >> 7u) & 0x01))
  3431  09A5  1283               	bcf	3,5	;RP0=0, select bank0
  3432  09A6  0814               	movf	20,w	;volatile
  3433  09A7  00A0               	movwf	??_I2C_master_send_start_condition
  3434  09A8  3007               	movlw	7
  3435  09A9                     u2295:	
  3436  09A9  1003               	clrc
  3437  09AA  0CA0               	rrf	??_I2C_master_send_start_condition,f
  3438  09AB  3EFF               	addlw	-1
  3439  09AC  1D03               	skipz
  3440  09AD  29A9               	goto	u2295
  3441  09AE  1C20               	btfss	??_I2C_master_send_start_condition,0
  3442  09AF  29B1               	goto	u2301
  3443  09B0  29B2               	goto	u2300
  3444  09B1                     u2301:	
  3445  09B1  29B6               	goto	l331
  3446  09B2                     u2300:	
  3447  09B2                     l2719:	
  3448                           
  3449                           ;I2C.c: 94:     {;I2C.c: 95:         *(volatile uint8*)0x14 &= ~(1 << 7u);
  3450  09B2  307F               	movlw	127
  3451  09B3  00A0               	movwf	??_I2C_master_send_start_condition
  3452  09B4  0820               	movf	??_I2C_master_send_start_condition,w
  3453  09B5  0594               	andwf	20,f	;volatile
  3454  09B6                     l331:	
  3455                           ;I2C.c: 96:     }
  3456                           
  3457  09B6  0008               	return
  3458  09B7                     __end_of_I2C_master_send_start_condition:	
  3459                           
  3460                           	psect	text21
  3461  095B                     __ptext21:	
  3462 ;; *************** function _I2C_master_send_data *****************
  3463 ;; Defined at:
  3464 ;;		line 215 in file "I2C.c"
  3465 ;; Parameters:    Size  Location     Type
  3466 ;;  a_I2C_Data      1    wreg     unsigned char 
  3467 ;; Auto vars:     Size  Location     Type
  3468 ;;  a_I2C_Data      1    1[BANK0 ] unsigned char 
  3469 ;; Return value:  Size  Location     Type
  3470 ;;                  1    wreg      enum E45
  3471 ;; Registers used:
  3472 ;;		wreg, status,2, status,0
  3473 ;; Tracked objects:
  3474 ;;		On entry : 0/0
  3475 ;;		On exit  : 0/0
  3476 ;;		Unchanged: 0/0
  3477 ;; Data sizes:     COMMON   BANK0   BANK1   BANK3   BANK2
  3478 ;;      Params:         0       0       0       0       0
  3479 ;;      Locals:         0       1       0       0       0
  3480 ;;      Temps:          0       1       0       0       0
  3481 ;;      Totals:         0       2       0       0       0
  3482 ;;Total ram usage:        2 bytes
  3483 ;; Hardware stack levels used:    1
  3484 ;; Hardware stack levels required when called:    3
  3485 ;; This function calls:
  3486 ;;		Nothing
  3487 ;; This function is called by:
  3488 ;;		_EEPROM_Save_Byte
  3489 ;;		_EEPROM_Read_Byte
  3490 ;;		_EEPROM_Save_Array
  3491 ;;		_EEPROM_Read_Array
  3492 ;;		_EEPROM_Save_Page
  3493 ;;		_EEPROM_Erase
  3494 ;; This function uses a non-reentrant model
  3495 ;;
  3496                           
  3497                           
  3498                           ;psect for function _I2C_master_send_data
  3499  095B                     _I2C_master_send_data:	
  3500                           
  3501                           ;incstack = 0
  3502                           ; Regs used in _I2C_master_send_data: [wreg+status,2+status,0]
  3503                           ;I2C_master_send_data@a_I2C_Data stored from wreg
  3504  095B  1283               	bcf	3,5	;RP0=0, select bank0
  3505  095C  1303               	bcf	3,6	;RP1=0, select bank0
  3506  095D  00A1               	movwf	I2C_master_send_data@a_I2C_Data
  3507  095E                     l2731:	
  3508                           
  3509                           ;I2C.c: 215: EnumI2C_Slave_Ack_t I2C_master_send_data(uint8 a_I2C_Data);I2C.c: 216: {;I2
      +                          C.c: 218:     *(volatile uint8*)0x13 = a_I2C_Data;
  3510  095E  0821               	movf	I2C_master_send_data@a_I2C_Data,w
  3511  095F  00A0               	movwf	??_I2C_master_send_data
  3512  0960  0820               	movf	??_I2C_master_send_data,w
  3513  0961  0093               	movwf	19	;volatile
  3514                           
  3515                           ;I2C.c: 220:     while(((*(volatile uint8*)0x14 >> 7u) & 0x01))
  3516  0962  2968               	goto	l2737
  3517  0963                     l2733:	
  3518                           
  3519                           ;I2C.c: 221:     {;I2C.c: 222:         *(volatile uint8*)0x14 &= ~(1 << 7u);
  3520  0963  307F               	movlw	127
  3521  0964  00A0               	movwf	??_I2C_master_send_data
  3522  0965  0820               	movf	??_I2C_master_send_data,w
  3523  0966  0594               	andwf	20,f	;volatile
  3524  0967  295E               	goto	l2731
  3525  0968                     l2737:	
  3526                           
  3527                           ;I2C.c: 220:     while(((*(volatile uint8*)0x14 >> 7u) & 0x01))
  3528  0968  0814               	movf	20,w	;volatile
  3529  0969  00A0               	movwf	??_I2C_master_send_data
  3530  096A  3007               	movlw	7
  3531  096B                     u2365:	
  3532  096B  1003               	clrc
  3533  096C  0CA0               	rrf	??_I2C_master_send_data,f
  3534  096D  3EFF               	addlw	-1
  3535  096E  1D03               	skipz
  3536  096F  296B               	goto	u2365
  3537  0970  1820               	btfsc	??_I2C_master_send_data,0
  3538  0971  2973               	goto	u2371
  3539  0972  2974               	goto	u2370
  3540  0973                     u2371:	
  3541  0973  2963               	goto	l2733
  3542  0974                     u2370:	
  3543  0974                     l2739:	
  3544  0974  080C               	movf	12,w	;volatile
  3545  0975  00A0               	movwf	??_I2C_master_send_data
  3546  0976  3003               	movlw	3
  3547  0977                     u2385:	
  3548  0977  1003               	clrc
  3549  0978  0CA0               	rrf	??_I2C_master_send_data,f
  3550  0979  3EFF               	addlw	-1
  3551  097A  1D03               	skipz
  3552  097B  2977               	goto	u2385
  3553  097C  1C20               	btfss	??_I2C_master_send_data,0
  3554  097D  297F               	goto	u2391
  3555  097E  2980               	goto	u2390
  3556  097F                     u2391:	
  3557  097F  2974               	goto	l2739
  3558  0980                     u2390:	
  3559  0980                     l2741:	
  3560                           
  3561                           ;I2C.c: 228:     *(volatile uint8*)0x0C &= ~(1 << 3u);
  3562  0980  30F7               	movlw	247
  3563  0981  00A0               	movwf	??_I2C_master_send_data
  3564  0982  0820               	movf	??_I2C_master_send_data,w
  3565  0983  058C               	andwf	12,f	;volatile
  3566  0984                     l2743:	
  3567                           
  3568                           ;I2C.c: 230:     return ((*(volatile uint8*)0x91 >> 6u) & 0x01);;	Return value of _I2C_m
      +                          aster_send_data is never used
  3569  0984  1683               	bsf	3,5	;RP0=1, select bank1
  3570  0985  1303               	bcf	3,6	;RP1=0, select bank1
  3571  0986  0811               	movf	17,w	;volatile
  3572  0987                     l367:	
  3573  0987  0008               	return
  3574  0988                     __end_of_I2C_master_send_data:	
  3575                           
  3576                           	psect	text22
  3577  0A1C                     __ptext22:	
  3578 ;; *************** function _I2C_master_send_address *****************
  3579 ;; Defined at:
  3580 ;;		line 172 in file "I2C.c"
  3581 ;; Parameters:    Size  Location     Type
  3582 ;;  a_I2C_Addres    1    wreg     unsigned char 
  3583 ;;  a_I2C_operat    1    0[BANK0 ] enum E19
  3584 ;; Auto vars:     Size  Location     Type
  3585 ;;  a_I2C_Addres    1    4[BANK0 ] unsigned char 
  3586 ;;  retVal_t        1    0        enum E27
  3587 ;; Return value:  Size  Location     Type
  3588 ;;                  1    wreg      enum E45
  3589 ;; Registers used:
  3590 ;;		wreg, status,2, status,0
  3591 ;; Tracked objects:
  3592 ;;		On entry : 0/0
  3593 ;;		On exit  : 0/0
  3594 ;;		Unchanged: 0/0
  3595 ;; Data sizes:     COMMON   BANK0   BANK1   BANK3   BANK2
  3596 ;;      Params:         0       1       0       0       0
  3597 ;;      Locals:         0       2       0       0       0
  3598 ;;      Temps:          0       2       0       0       0
  3599 ;;      Totals:         0       5       0       0       0
  3600 ;;Total ram usage:        5 bytes
  3601 ;; Hardware stack levels used:    1
  3602 ;; Hardware stack levels required when called:    3
  3603 ;; This function calls:
  3604 ;;		Nothing
  3605 ;; This function is called by:
  3606 ;;		_EEPROM_Save_Byte
  3607 ;;		_EEPROM_Read_Byte
  3608 ;;		_EEPROM_Save_Array
  3609 ;;		_EEPROM_Read_Array
  3610 ;;		_EEPROM_Save_Page
  3611 ;;		_EEPROM_Erase
  3612 ;; This function uses a non-reentrant model
  3613 ;;
  3614                           
  3615                           
  3616                           ;psect for function _I2C_master_send_address
  3617  0A1C                     _I2C_master_send_address:	
  3618                           
  3619                           ;incstack = 0
  3620                           ; Regs used in _I2C_master_send_address: [wreg+status,2+status,0]
  3621                           ;I2C_master_send_address@a_I2C_Address stored from wreg
  3622  0A1C  1283               	bcf	3,5	;RP0=0, select bank0
  3623  0A1D  1303               	bcf	3,6	;RP1=0, select bank0
  3624  0A1E  00A4               	movwf	I2C_master_send_address@a_I2C_Address
  3625  0A1F                     l2721:	
  3626                           
  3627                           ;I2C.c: 172: EnumI2C_Slave_Ack_t I2C_master_send_address(uint8 a_I2C_Address , EnumI2C_o
      +                          peration_t a_I2C_operaton_t);I2C.c: 173: {;I2C.c: 175:     EnumI2C_Slave_Ack_t retVal_t;
      +                          ;I2C.c: 177:     *(volatile uint8*)0x13 = (a_I2C_Address << 1) | a_I2C_operaton_t;
  3628  0A1F  0824               	movf	I2C_master_send_address@a_I2C_Address,w
  3629  0A20  00A1               	movwf	??_I2C_master_send_address
  3630  0A21  0721               	addwf	??_I2C_master_send_address,w
  3631  0A22  0420               	iorwf	I2C_master_send_address@a_I2C_operaton_t,w
  3632  0A23  00A2               	movwf	??_I2C_master_send_address+1
  3633  0A24  0822               	movf	??_I2C_master_send_address+1,w
  3634  0A25  0093               	movwf	19	;volatile
  3635                           
  3636                           ;I2C.c: 179:     while(((*(volatile uint8*)0x14 >> 7u) & 0x01))
  3637  0A26  2A32               	goto	l350
  3638  0A27                     l2723:	
  3639                           
  3640                           ;I2C.c: 180:     {;I2C.c: 181:         *(volatile uint8*)0x14 &= ~(1 << 7u);
  3641  0A27  307F               	movlw	127
  3642  0A28  00A1               	movwf	??_I2C_master_send_address
  3643  0A29  0821               	movf	??_I2C_master_send_address,w
  3644  0A2A  0594               	andwf	20,f	;volatile
  3645                           
  3646                           ;I2C.c: 183:         *(volatile uint8*)0x13 = (a_I2C_Address << 1) | a_I2C_operaton_t;
  3647  0A2B  0824               	movf	I2C_master_send_address@a_I2C_Address,w
  3648  0A2C  00A1               	movwf	??_I2C_master_send_address
  3649  0A2D  0721               	addwf	??_I2C_master_send_address,w
  3650  0A2E  0420               	iorwf	I2C_master_send_address@a_I2C_operaton_t,w
  3651  0A2F  00A2               	movwf	??_I2C_master_send_address+1
  3652  0A30  0822               	movf	??_I2C_master_send_address+1,w
  3653  0A31  0093               	movwf	19	;volatile
  3654  0A32                     l350:	
  3655                           ;I2C.c: 184:     }
  3656                           
  3657                           
  3658                           ;I2C.c: 179:     while(((*(volatile uint8*)0x14 >> 7u) & 0x01))
  3659  0A32  0814               	movf	20,w	;volatile
  3660  0A33  00A1               	movwf	??_I2C_master_send_address
  3661  0A34  3007               	movlw	7
  3662  0A35                     u2315:	
  3663  0A35  1003               	clrc
  3664  0A36  0CA1               	rrf	??_I2C_master_send_address,f
  3665  0A37  3EFF               	addlw	-1
  3666  0A38  1D03               	skipz
  3667  0A39  2A35               	goto	u2315
  3668  0A3A  1821               	btfsc	??_I2C_master_send_address,0
  3669  0A3B  2A3D               	goto	u2321
  3670  0A3C  2A3E               	goto	u2320
  3671  0A3D                     u2321:	
  3672  0A3D  2A27               	goto	l2723
  3673  0A3E                     u2320:	
  3674  0A3E                     l2725:	
  3675  0A3E  080C               	movf	12,w	;volatile
  3676  0A3F  00A1               	movwf	??_I2C_master_send_address
  3677  0A40  3003               	movlw	3
  3678  0A41                     u2335:	
  3679  0A41  1003               	clrc
  3680  0A42  0CA1               	rrf	??_I2C_master_send_address,f
  3681  0A43  3EFF               	addlw	-1
  3682  0A44  1D03               	skipz
  3683  0A45  2A41               	goto	u2335
  3684  0A46  1C21               	btfss	??_I2C_master_send_address,0
  3685  0A47  2A49               	goto	u2341
  3686  0A48  2A4A               	goto	u2340
  3687  0A49                     u2341:	
  3688  0A49  2A3E               	goto	l2725
  3689  0A4A                     u2340:	
  3690  0A4A                     l2727:	
  3691                           
  3692                           ;I2C.c: 188:     *(volatile uint8*)0x0C &= ~(1 << 3u);
  3693  0A4A  30F7               	movlw	247
  3694  0A4B  00A1               	movwf	??_I2C_master_send_address
  3695  0A4C  0821               	movf	??_I2C_master_send_address,w
  3696  0A4D  058C               	andwf	12,f	;volatile
  3697  0A4E  1683               	bsf	3,5	;RP0=1, select bank1
  3698  0A4F  1303               	bcf	3,6	;RP1=0, select bank1
  3699  0A50  0811               	movf	17,w	;volatile
  3700                           
  3701                           ;I2C.c: 192:     if(a_I2C_operaton_t == I2C_READ_OPERATION)
  3702  0A51  1283               	bcf	3,5	;RP0=0, select bank0
  3703  0A52  1303               	bcf	3,6	;RP1=0, select bank0
  3704  0A53  0320               	decf	I2C_master_send_address@a_I2C_operaton_t,w
  3705  0A54  1D03               	btfss	3,2
  3706  0A55  2A57               	goto	u2351
  3707  0A56  2A58               	goto	u2350
  3708  0A57                     u2351:	
  3709  0A57  2A5B               	goto	l358
  3710  0A58                     u2350:	
  3711  0A58                     l2729:	
  3712                           
  3713                           ;I2C.c: 193:     {;I2C.c: 194:         *(volatile uint8*)0x91 |= 1 << 3u;
  3714  0A58  1683               	bsf	3,5	;RP0=1, select bank1
  3715  0A59  1303               	bcf	3,6	;RP1=0, select bank1
  3716  0A5A  1591               	bsf	17,3	;volatile
  3717  0A5B                     l358:	
  3718                           ;I2C.c: 195:     }
  3719                           
  3720  0A5B  0008               	return
  3721  0A5C                     __end_of_I2C_master_send_address:	
  3722                           
  3723                           	psect	text23
  3724  0BB7                     __ptext23:	
  3725 ;; *************** function _Check_ON_Push_Button *****************
  3726 ;; Defined at:
  3727 ;;		line 613 in file "heater.c"
  3728 ;; Parameters:    Size  Location     Type
  3729 ;;  a_u8Port        1    wreg     unsigned char 
  3730 ;;  a_u8Pin         1    5[BANK0 ] unsigned char 
  3731 ;; Auto vars:     Size  Location     Type
  3732 ;;  a_u8Port        1    9[BANK0 ] unsigned char 
  3733 ;;  retVal_t        1    8[BANK0 ] enum E1018
  3734 ;; Return value:  Size  Location     Type
  3735 ;;                  1    wreg      enum E50
  3736 ;; Registers used:
  3737 ;;		wreg, fsr0l, fsr0h, status,2, status,0, pclath, cstack
  3738 ;; Tracked objects:
  3739 ;;		On entry : 0/0
  3740 ;;		On exit  : 0/0
  3741 ;;		Unchanged: 0/0
  3742 ;; Data sizes:     COMMON   BANK0   BANK1   BANK3   BANK2
  3743 ;;      Params:         0       1       0       0       0
  3744 ;;      Locals:         0       2       0       0       0
  3745 ;;      Temps:          0       2       0       0       0
  3746 ;;      Totals:         0       5       0       0       0
  3747 ;;Total ram usage:        5 bytes
  3748 ;; Hardware stack levels used:    1
  3749 ;; Hardware stack levels required when called:    4
  3750 ;; This function calls:
  3751 ;;		_GPIO_ReadFromPin
  3752 ;; This function is called by:
  3753 ;;		_main
  3754 ;;		_Heater_change_temperature
  3755 ;;		_Heater_check_if_change_state_to_setup_or_off
  3756 ;; This function uses a non-reentrant model
  3757 ;;
  3758                           
  3759                           
  3760                           ;psect for function _Check_ON_Push_Button
  3761  0BB7                     _Check_ON_Push_Button:	
  3762                           
  3763                           ;incstack = 0
  3764                           ; Regs used in _Check_ON_Push_Button: [wreg-fsr0h+status,2+status,0+pclath+cstack]
  3765                           ;Check_ON_Push_Button@a_u8Port stored from wreg
  3766  0BB7  1283               	bcf	3,5	;RP0=0, select bank0
  3767  0BB8  1303               	bcf	3,6	;RP1=0, select bank0
  3768  0BB9  00A9               	movwf	Check_ON_Push_Button@a_u8Port
  3769  0BBA                     l3409:	
  3770                           
  3771                           ;heater.c: 613: EnumButton_State_t Check_ON_Push_Button(uint8 a_u8Port , uint8 a_u8Pin);
      +                          heater.c: 614: {;heater.c: 616:     EnumButton_State_t retVal_t = PUSH_BUTTON_IS_NOT_PRE
      +                          SSED;
  3772  0BBA  01A8               	clrf	Check_ON_Push_Button@retVal_t
  3773  0BBB  0AA8               	incf	Check_ON_Push_Button@retVal_t,f
  3774  0BBC                     l3411:	
  3775                           
  3776                           ;heater.c: 618:     if(GPIO_ReadFromPin(a_u8Port , a_u8Pin) == PUSH_BUTTON_IS_PRESSED)
  3777  0BBC  0825               	movf	Check_ON_Push_Button@a_u8Pin,w
  3778  0BBD  00A6               	movwf	??_Check_ON_Push_Button
  3779  0BBE  0826               	movf	??_Check_ON_Push_Button,w
  3780  0BBF  00A0               	movwf	GPIO_ReadFromPin@a_u8pin
  3781  0BC0  0829               	movf	Check_ON_Push_Button@a_u8Port,w
  3782  0BC1  120A  118A  270D  120A  158A  	fcall	_GPIO_ReadFromPin
  3783  0BC6  3A00               	xorlw	0
  3784  0BC7  1D03               	skipz
  3785  0BC8  2BCA               	goto	u3891
  3786  0BC9  2BCB               	goto	u3890
  3787  0BCA                     u3891:	
  3788  0BCA  2BFA               	goto	l3423
  3789  0BCB                     u3890:	
  3790  0BCB                     l3413:	
  3791                           
  3792                           ;heater.c: 619:     {;heater.c: 621:         _delay((unsigned long)((5)*(8000000u/4000.0
      +                          )));
  3793  0BCB  300D               	movlw	13
  3794  0BCC  1283               	bcf	3,5	;RP0=0, select bank0
  3795  0BCD  1303               	bcf	3,6	;RP1=0, select bank0
  3796  0BCE  00A7               	movwf	??_Check_ON_Push_Button+1
  3797  0BCF  30FB               	movlw	251
  3798  0BD0  00A6               	movwf	??_Check_ON_Push_Button
  3799  0BD1                     u4327:	
  3800  0BD1  0BA6               	decfsz	??_Check_ON_Push_Button,f
  3801  0BD2  2BD1               	goto	u4327
  3802  0BD3  0BA7               	decfsz	??_Check_ON_Push_Button+1,f
  3803  0BD4  2BD1               	goto	u4327
  3804  0BD5                     l3415:	
  3805                           
  3806                           ;heater.c: 623:         if(GPIO_ReadFromPin(a_u8Port , a_u8Pin) == PUSH_BUTTON_IS_PRESSE
      +                          D)
  3807  0BD5  1283               	bcf	3,5	;RP0=0, select bank0
  3808  0BD6  1303               	bcf	3,6	;RP1=0, select bank0
  3809  0BD7  0825               	movf	Check_ON_Push_Button@a_u8Pin,w
  3810  0BD8  00A6               	movwf	??_Check_ON_Push_Button
  3811  0BD9  0826               	movf	??_Check_ON_Push_Button,w
  3812  0BDA  00A0               	movwf	GPIO_ReadFromPin@a_u8pin
  3813  0BDB  0829               	movf	Check_ON_Push_Button@a_u8Port,w
  3814  0BDC  120A  118A  270D  120A  158A  	fcall	_GPIO_ReadFromPin
  3815  0BE1  3A00               	xorlw	0
  3816  0BE2  1D03               	skipz
  3817  0BE3  2BE5               	goto	u3901
  3818  0BE4  2BE6               	goto	u3900
  3819  0BE5                     u3901:	
  3820  0BE5  2BFA               	goto	l3423
  3821  0BE6                     u3900:	
  3822  0BE6                     l3419:	
  3823  0BE6  1283               	bcf	3,5	;RP0=0, select bank0
  3824  0BE7  1303               	bcf	3,6	;RP1=0, select bank0
  3825  0BE8  0825               	movf	Check_ON_Push_Button@a_u8Pin,w
  3826  0BE9  00A6               	movwf	??_Check_ON_Push_Button
  3827  0BEA  0826               	movf	??_Check_ON_Push_Button,w
  3828  0BEB  00A0               	movwf	GPIO_ReadFromPin@a_u8pin
  3829  0BEC  0829               	movf	Check_ON_Push_Button@a_u8Port,w
  3830  0BED  120A  118A  270D  120A  158A  	fcall	_GPIO_ReadFromPin
  3831  0BF2  3A00               	xorlw	0
  3832  0BF3  1903               	skipnz
  3833  0BF4  2BF6               	goto	u3911
  3834  0BF5  2BF7               	goto	u3910
  3835  0BF6                     u3911:	
  3836  0BF6  2BE6               	goto	l3419
  3837  0BF7                     u3910:	
  3838  0BF7                     l3421:	
  3839                           
  3840                           ;heater.c: 627:             retVal_t = PUSH_BUTTON_IS_PRESSED;
  3841  0BF7  1283               	bcf	3,5	;RP0=0, select bank0
  3842  0BF8  1303               	bcf	3,6	;RP1=0, select bank0
  3843  0BF9  01A8               	clrf	Check_ON_Push_Button@retVal_t
  3844  0BFA                     l3423:	
  3845                           ;heater.c: 628:         }
  3846                           
  3847                           
  3848                           ;heater.c: 639:     return retVal_t;
  3849  0BFA  1283               	bcf	3,5	;RP0=0, select bank0
  3850  0BFB  1303               	bcf	3,6	;RP1=0, select bank0
  3851  0BFC  0828               	movf	Check_ON_Push_Button@retVal_t,w
  3852  0BFD                     l721:	
  3853  0BFD  0008               	return
  3854  0BFE                     __end_of_Check_ON_Push_Button:	
  3855                           
  3856                           	psect	text24
  3857  070D                     __ptext24:	
  3858 ;; *************** function _GPIO_ReadFromPin *****************
  3859 ;; Defined at:
  3860 ;;		line 510 in file "GPIO.c"
  3861 ;; Parameters:    Size  Location     Type
  3862 ;;  a_u8port        1    wreg     unsigned char 
  3863 ;;  a_u8pin         1    0[BANK0 ] unsigned char 
  3864 ;; Auto vars:     Size  Location     Type
  3865 ;;  a_u8port        1    3[BANK0 ] unsigned char 
  3866 ;;  retVal          1    4[BANK0 ] unsigned char 
  3867 ;; Return value:  Size  Location     Type
  3868 ;;                  1    wreg      unsigned char 
  3869 ;; Registers used:
  3870 ;;		wreg, fsr0l, fsr0h, status,2, status,0
  3871 ;; Tracked objects:
  3872 ;;		On entry : 0/0
  3873 ;;		On exit  : 0/0
  3874 ;;		Unchanged: 0/0
  3875 ;; Data sizes:     COMMON   BANK0   BANK1   BANK3   BANK2
  3876 ;;      Params:         0       1       0       0       0
  3877 ;;      Locals:         0       2       0       0       0
  3878 ;;      Temps:          0       2       0       0       0
  3879 ;;      Totals:         0       5       0       0       0
  3880 ;;Total ram usage:        5 bytes
  3881 ;; Hardware stack levels used:    1
  3882 ;; Hardware stack levels required when called:    3
  3883 ;; This function calls:
  3884 ;;		Nothing
  3885 ;; This function is called by:
  3886 ;;		_Check_ON_Push_Button
  3887 ;; This function uses a non-reentrant model
  3888 ;;
  3889                           
  3890                           
  3891                           ;psect for function _GPIO_ReadFromPin
  3892  070D                     _GPIO_ReadFromPin:	
  3893                           
  3894                           ;incstack = 0
  3895                           ; Regs used in _GPIO_ReadFromPin: [wreg-fsr0h+status,2+status,0]
  3896                           ;GPIO_ReadFromPin@a_u8port stored from wreg
  3897  070D  1283               	bcf	3,5	;RP0=0, select bank0
  3898  070E  1303               	bcf	3,6	;RP1=0, select bank0
  3899  070F  00A3               	movwf	GPIO_ReadFromPin@a_u8port
  3900  0710                     l3089:	
  3901                           
  3902                           ;GPIO.c: 510: uint8 GPIO_ReadFromPin(uint8 a_u8port , uint8 a_u8pin);GPIO.c: 511: {;GPIO
      +                          .c: 512:     uint8 retVal = 0xFF;
  3903  0710  30FF               	movlw	255
  3904  0711  00A1               	movwf	??_GPIO_ReadFromPin
  3905  0712  0821               	movf	??_GPIO_ReadFromPin,w
  3906  0713  00A4               	movwf	GPIO_ReadFromPin@retVal
  3907                           
  3908                           ;GPIO.c: 514:     switch(a_u8port)
  3909  0714  2F60               	goto	l3103
  3910  0715                     l3091:	
  3911                           
  3912                           ;GPIO.c: 517:             retVal = ((*(volatile uint8*)0x05 >> a_u8pin) & 0x01);
  3913  0715  0805               	movf	5,w	;volatile
  3914  0716  00A1               	movwf	??_GPIO_ReadFromPin
  3915  0717  0A20               	incf	GPIO_ReadFromPin@a_u8pin,w
  3916  0718  2F1B               	goto	u3274
  3917  0719                     u3275:	
  3918  0719  1003               	clrc
  3919  071A  0CA1               	rrf	??_GPIO_ReadFromPin,f
  3920  071B                     u3274:	
  3921  071B  3EFF               	addlw	-1
  3922  071C  1D03               	skipz
  3923  071D  2F19               	goto	u3275
  3924  071E  0821               	movf	??_GPIO_ReadFromPin,w
  3925  071F  3901               	andlw	1
  3926  0720  00A2               	movwf	??_GPIO_ReadFromPin+1
  3927  0721  0822               	movf	??_GPIO_ReadFromPin+1,w
  3928  0722  00A4               	movwf	GPIO_ReadFromPin@retVal
  3929                           
  3930                           ;GPIO.c: 518:             break;
  3931  0723  2F79               	goto	l3105
  3932  0724                     l3093:	
  3933                           
  3934                           ;GPIO.c: 520:             retVal = ((*(volatile uint8*)0x06 >> a_u8pin) & 0x01);
  3935  0724  0806               	movf	6,w	;volatile
  3936  0725  00A1               	movwf	??_GPIO_ReadFromPin
  3937  0726  0A20               	incf	GPIO_ReadFromPin@a_u8pin,w
  3938  0727  2F2A               	goto	u3284
  3939  0728                     u3285:	
  3940  0728  1003               	clrc
  3941  0729  0CA1               	rrf	??_GPIO_ReadFromPin,f
  3942  072A                     u3284:	
  3943  072A  3EFF               	addlw	-1
  3944  072B  1D03               	skipz
  3945  072C  2F28               	goto	u3285
  3946  072D  0821               	movf	??_GPIO_ReadFromPin,w
  3947  072E  3901               	andlw	1
  3948  072F  00A2               	movwf	??_GPIO_ReadFromPin+1
  3949  0730  0822               	movf	??_GPIO_ReadFromPin+1,w
  3950  0731  00A4               	movwf	GPIO_ReadFromPin@retVal
  3951                           
  3952                           ;GPIO.c: 521:             break;
  3953  0732  2F79               	goto	l3105
  3954  0733                     l3095:	
  3955                           
  3956                           ;GPIO.c: 523:             retVal = ((*(volatile uint8*)0x07 >> a_u8pin) & 0x01);
  3957  0733  0807               	movf	7,w	;volatile
  3958  0734  00A1               	movwf	??_GPIO_ReadFromPin
  3959  0735  0A20               	incf	GPIO_ReadFromPin@a_u8pin,w
  3960  0736  2F39               	goto	u3294
  3961  0737                     u3295:	
  3962  0737  1003               	clrc
  3963  0738  0CA1               	rrf	??_GPIO_ReadFromPin,f
  3964  0739                     u3294:	
  3965  0739  3EFF               	addlw	-1
  3966  073A  1D03               	skipz
  3967  073B  2F37               	goto	u3295
  3968  073C  0821               	movf	??_GPIO_ReadFromPin,w
  3969  073D  3901               	andlw	1
  3970  073E  00A2               	movwf	??_GPIO_ReadFromPin+1
  3971  073F  0822               	movf	??_GPIO_ReadFromPin+1,w
  3972  0740  00A4               	movwf	GPIO_ReadFromPin@retVal
  3973                           
  3974                           ;GPIO.c: 524:             break;
  3975  0741  2F79               	goto	l3105
  3976  0742                     l3097:	
  3977                           
  3978                           ;GPIO.c: 526:             retVal = ((*(volatile uint8*)0x08 >> a_u8pin) & 0x01);
  3979  0742  0808               	movf	8,w	;volatile
  3980  0743  00A1               	movwf	??_GPIO_ReadFromPin
  3981  0744  0A20               	incf	GPIO_ReadFromPin@a_u8pin,w
  3982  0745  2F48               	goto	u3304
  3983  0746                     u3305:	
  3984  0746  1003               	clrc
  3985  0747  0CA1               	rrf	??_GPIO_ReadFromPin,f
  3986  0748                     u3304:	
  3987  0748  3EFF               	addlw	-1
  3988  0749  1D03               	skipz
  3989  074A  2F46               	goto	u3305
  3990  074B  0821               	movf	??_GPIO_ReadFromPin,w
  3991  074C  3901               	andlw	1
  3992  074D  00A2               	movwf	??_GPIO_ReadFromPin+1
  3993  074E  0822               	movf	??_GPIO_ReadFromPin+1,w
  3994  074F  00A4               	movwf	GPIO_ReadFromPin@retVal
  3995                           
  3996                           ;GPIO.c: 527:             break;
  3997  0750  2F79               	goto	l3105
  3998  0751                     l3099:	
  3999                           
  4000                           ;GPIO.c: 529:             retVal = ((*(volatile uint8*)0x09 >> a_u8pin) & 0x01);
  4001  0751  0809               	movf	9,w	;volatile
  4002  0752  00A1               	movwf	??_GPIO_ReadFromPin
  4003  0753  0A20               	incf	GPIO_ReadFromPin@a_u8pin,w
  4004  0754  2F57               	goto	u3314
  4005  0755                     u3315:	
  4006  0755  1003               	clrc
  4007  0756  0CA1               	rrf	??_GPIO_ReadFromPin,f
  4008  0757                     u3314:	
  4009  0757  3EFF               	addlw	-1
  4010  0758  1D03               	skipz
  4011  0759  2F55               	goto	u3315
  4012  075A  0821               	movf	??_GPIO_ReadFromPin,w
  4013  075B  3901               	andlw	1
  4014  075C  00A2               	movwf	??_GPIO_ReadFromPin+1
  4015  075D  0822               	movf	??_GPIO_ReadFromPin+1,w
  4016  075E  00A4               	movwf	GPIO_ReadFromPin@retVal
  4017                           
  4018                           ;GPIO.c: 530:             break;
  4019  075F  2F79               	goto	l3105
  4020  0760                     l3103:	
  4021  0760  0823               	movf	GPIO_ReadFromPin@a_u8port,w
  4022  0761  00A1               	movwf	??_GPIO_ReadFromPin
  4023  0762  01A2               	clrf	??_GPIO_ReadFromPin+1
  4024                           
  4025                           ; Switch on 2 bytes has been partitioned into a top level switch of size 1, and 1 sub-sw
      +                          itches
  4026                           ; Switch size 1, requested type "simple"
  4027                           ; Number of cases is 1, Range of values is 0 to 0
  4028                           ; switch strategies available:
  4029                           ; Name         Instructions Cycles
  4030                           ; simple_byte            4     3 (average)
  4031                           ; direct_byte           11     8 (fixed)
  4032                           ; jumptable            260     6 (fixed)
  4033                           ;	Chosen strategy is simple_byte
  4034  0763  0822               	movf	??_GPIO_ReadFromPin+1,w
  4035  0764  3A00               	xorlw	0	; case 0
  4036  0765  1903               	skipnz
  4037  0766  2F68               	goto	l4073
  4038  0767  2F79               	goto	l3105
  4039  0768                     l4073:	
  4040                           
  4041                           ; Switch size 1, requested type "simple"
  4042                           ; Number of cases is 5, Range of values is 0 to 4
  4043                           ; switch strategies available:
  4044                           ; Name         Instructions Cycles
  4045                           ; simple_byte           16     9 (average)
  4046                           ; direct_byte           23     8 (fixed)
  4047                           ; jumptable            260     6 (fixed)
  4048                           ;	Chosen strategy is simple_byte
  4049  0768  0821               	movf	??_GPIO_ReadFromPin,w
  4050  0769  3A00               	xorlw	0	; case 0
  4051  076A  1903               	skipnz
  4052  076B  2F15               	goto	l3091
  4053  076C  3A01               	xorlw	1	; case 1
  4054  076D  1903               	skipnz
  4055  076E  2F24               	goto	l3093
  4056  076F  3A03               	xorlw	3	; case 2
  4057  0770  1903               	skipnz
  4058  0771  2F33               	goto	l3095
  4059  0772  3A01               	xorlw	1	; case 3
  4060  0773  1903               	skipnz
  4061  0774  2F42               	goto	l3097
  4062  0775  3A07               	xorlw	7	; case 4
  4063  0776  1903               	skipnz
  4064  0777  2F51               	goto	l3099
  4065  0778  2F79               	goto	l3105
  4066  0779                     l3105:	
  4067                           
  4068                           ;GPIO.c: 535:     return retVal;
  4069  0779  0824               	movf	GPIO_ReadFromPin@retVal,w
  4070  077A                     l260:	
  4071  077A  0008               	return
  4072  077B                     __end_of_GPIO_ReadFromPin:	
  4073                           
  4074                           	psect	text25
  4075  08CA                     __ptext25:	
  4076 ;; *************** function _Heater_blank_temperature *****************
  4077 ;; Defined at:
  4078 ;;		line 580 in file "heater.c"
  4079 ;; Parameters:    Size  Location     Type
  4080 ;;		None
  4081 ;; Auto vars:     Size  Location     Type
  4082 ;;		None
  4083 ;; Return value:  Size  Location     Type
  4084 ;;                  1    wreg      void 
  4085 ;; Registers used:
  4086 ;;		wreg, fsr0l, fsr0h, status,2, status,0, pclath, cstack
  4087 ;; Tracked objects:
  4088 ;;		On entry : 0/0
  4089 ;;		On exit  : 0/0
  4090 ;;		Unchanged: 0/0
  4091 ;; Data sizes:     COMMON   BANK0   BANK1   BANK3   BANK2
  4092 ;;      Params:         0       0       0       0       0
  4093 ;;      Locals:         0       0       0       0       0
  4094 ;;      Temps:          0       0       0       0       0
  4095 ;;      Totals:         0       0       0       0       0
  4096 ;;Total ram usage:        0 bytes
  4097 ;; Hardware stack levels used:    1
  4098 ;; Hardware stack levels required when called:    6
  4099 ;; This function calls:
  4100 ;;		_Heater_display_off_temperature
  4101 ;;		_Heater_display_on_temperature
  4102 ;; This function is called by:
  4103 ;;		_main
  4104 ;; This function uses a non-reentrant model
  4105 ;;
  4106                           
  4107                           
  4108                           ;psect for function _Heater_blank_temperature
  4109  08CA                     _Heater_blank_temperature:	
  4110  08CA                     l3645:	
  4111                           ;incstack = 0
  4112                           ; Regs used in _Heater_blank_temperature: [wreg-fsr0h+status,2+status,0+pclath+cstack]
  4113                           
  4114                           
  4115                           ;heater.c: 583:     if(g_u8Display_blank_counter < 10)
  4116  08CA  300A               	movlw	10
  4117  08CB  1283               	bcf	3,5	;RP0=0, select bank0
  4118  08CC  1303               	bcf	3,6	;RP1=0, select bank0
  4119  08CD  024A               	subwf	_g_u8Display_blank_counter,w
  4120  08CE  1803               	skipnc
  4121  08CF  28D1               	goto	u4101
  4122  08D0  28D2               	goto	u4100
  4123  08D1                     u4101:	
  4124  08D1  28D8               	goto	l3649
  4125  08D2                     u4100:	
  4126  08D2                     l3647:	
  4127                           
  4128                           ;heater.c: 584:     {;heater.c: 585:         Heater_display_on_temperature();
  4129  08D2  120A  118A  2696  120A  158A  	fcall	_Heater_display_on_temperature
  4130                           
  4131                           ;heater.c: 586:     }
  4132  08D7  28EC               	goto	l711
  4133  08D8                     l3649:	
  4134  08D8  300A               	movlw	10
  4135  08D9  064A               	xorwf	_g_u8Display_blank_counter,w
  4136  08DA  1D03               	btfss	3,2
  4137  08DB  28DD               	goto	u4111
  4138  08DC  28DE               	goto	u4110
  4139  08DD                     u4111:	
  4140  08DD  28E4               	goto	l3653
  4141  08DE                     u4110:	
  4142  08DE                     l3651:	
  4143                           
  4144                           ;heater.c: 588:     {;heater.c: 589:         Heater_display_off_temperature();
  4145  08DE  120A  158A  20B8  120A  158A  	fcall	_Heater_display_off_temperature
  4146                           
  4147                           ;heater.c: 590:     }
  4148  08E3  28EC               	goto	l711
  4149  08E4                     l3653:	
  4150  08E4  3014               	movlw	20
  4151  08E5  064A               	xorwf	_g_u8Display_blank_counter,w
  4152  08E6  1D03               	btfss	3,2
  4153  08E7  28E9               	goto	u4121
  4154  08E8  28EA               	goto	u4120
  4155  08E9                     u4121:	
  4156  08E9  28EC               	goto	l708
  4157  08EA                     u4120:	
  4158  08EA                     l3655:	
  4159                           
  4160                           ;heater.c: 592:     {;heater.c: 593:         g_u8Display_blank_counter = 0;
  4161  08EA  01CA               	clrf	_g_u8Display_blank_counter
  4162                           
  4163                           ;heater.c: 594:     }
  4164  08EB  28EC               	goto	l711
  4165  08EC                     l708:	
  4166  08EC                     l711:	
  4167  08EC  0008               	return
  4168  08ED                     __end_of_Heater_blank_temperature:	
  4169                           
  4170                           	psect	text26
  4171  0696                     __ptext26:	
  4172 ;; *************** function _Heater_display_on_temperature *****************
  4173 ;; Defined at:
  4174 ;;		line 360 in file "heater.c"
  4175 ;; Parameters:    Size  Location     Type
  4176 ;;		None
  4177 ;; Auto vars:     Size  Location     Type
  4178 ;;		None
  4179 ;; Return value:  Size  Location     Type
  4180 ;;                  1    wreg      void 
  4181 ;; Registers used:
  4182 ;;		wreg, fsr0l, fsr0h, status,2, status,0, pclath, cstack
  4183 ;; Tracked objects:
  4184 ;;		On entry : 0/0
  4185 ;;		On exit  : 0/0
  4186 ;;		Unchanged: 0/0
  4187 ;; Data sizes:     COMMON   BANK0   BANK1   BANK3   BANK2
  4188 ;;      Params:         0       0       0       0       0
  4189 ;;      Locals:         0       0       0       0       0
  4190 ;;      Temps:          0       2       0       0       0
  4191 ;;      Totals:         0       2       0       0       0
  4192 ;;Total ram usage:        2 bytes
  4193 ;; Hardware stack levels used:    1
  4194 ;; Hardware stack levels required when called:    5
  4195 ;; This function calls:
  4196 ;;		_SevenSegment_Display
  4197 ;;		_SevenSegment_SelectChip
  4198 ;;		___awdiv
  4199 ;;		___awmod
  4200 ;; This function is called by:
  4201 ;;		_main
  4202 ;;		_Heater_blank_temperature
  4203 ;; This function uses a non-reentrant model
  4204 ;;
  4205                           
  4206                           
  4207                           ;psect for function _Heater_display_on_temperature
  4208  0696                     _Heater_display_on_temperature:	
  4209  0696                     l3427:	
  4210                           ;incstack = 0
  4211                           ; Regs used in _Heater_display_on_temperature: [wreg-fsr0h+status,2+status,0+pclath+csta
      +                          ck]
  4212                           
  4213                           
  4214                           ;heater.c: 363:     SevenSegment_SelectChip(SEVEN_SEGMENT_DISABLE_CHIP , SEVEN_SEGMENT_D
      +                          ISABLE_CHIP ,
  4215  0696  1283               	bcf	3,5	;RP0=0, select bank0
  4216  0697  1303               	bcf	3,6	;RP1=0, select bank0
  4217  0698  01A6               	clrf	SevenSegment_SelectChip@a_Chip2
  4218  0699  0AA6               	incf	SevenSegment_SelectChip@a_Chip2,f
  4219  069A  01A7               	clrf	SevenSegment_SelectChip@a_Chip3
  4220  069B  0AA7               	incf	SevenSegment_SelectChip@a_Chip3,f
  4221  069C  01A8               	clrf	SevenSegment_SelectChip@a_Chip4
  4222  069D  0AA8               	incf	SevenSegment_SelectChip@a_Chip4,f
  4223  069E  3001               	movlw	1
  4224  069F  120A  118A  241E  120A  118A  	fcall	_SevenSegment_SelectChip
  4225  06A4                     l3429:	
  4226                           
  4227                           ;heater.c: 366:     if(g_u8Sync_flag == 0)
  4228  06A4  1283               	bcf	3,5	;RP0=0, select bank0
  4229  06A5  1303               	bcf	3,6	;RP1=0, select bank0
  4230  06A6  084E               	movf	_g_u8Sync_flag,w
  4231  06A7  1D03               	btfss	3,2
  4232  06A8  2EAA               	goto	u3921
  4233  06A9  2EAB               	goto	u3920
  4234  06AA                     u3921:	
  4235  06AA  2EE1               	goto	l3437
  4236  06AB                     u3920:	
  4237  06AB                     l3431:	
  4238                           
  4239                           ;heater.c: 367:     {;heater.c: 370:         SevenSegment_Display(g_u8Heater_real_time_t
      +                          emperature / 10 ,
  4240  06AB  01A9               	clrf	SevenSegment_Display@a_displayDot
  4241  06AC  0AA9               	incf	SevenSegment_Display@a_displayDot,f
  4242  06AD  300A               	movlw	10
  4243  06AE  00A0               	movwf	___awdiv@divisor
  4244  06AF  3000               	movlw	0
  4245  06B0  00A1               	movwf	___awdiv@divisor+1
  4246  06B1  085D               	movf	_g_u8Heater_real_time_temperature,w
  4247  06B2  00B9               	movwf	??_Heater_display_on_temperature
  4248  06B3  01BA               	clrf	??_Heater_display_on_temperature+1
  4249  06B4  0839               	movf	??_Heater_display_on_temperature,w
  4250  06B5  00A2               	movwf	___awdiv@dividend
  4251  06B6  083A               	movf	??_Heater_display_on_temperature+1,w
  4252  06B7  00A3               	movwf	___awdiv@dividend+1
  4253  06B8  120A  158A  272D  120A  118A  	fcall	___awdiv
  4254  06BD  1283               	bcf	3,5	;RP0=0, select bank0
  4255  06BE  1303               	bcf	3,6	;RP1=0, select bank0
  4256  06BF  0820               	movf	?___awdiv,w
  4257  06C0  120A  158A  22A1  120A  118A  	fcall	_SevenSegment_Display
  4258                           
  4259                           ;heater.c: 373:         SevenSegment_SelectChip(SEVEN_SEGMENT_DISABLE_CHIP ,
  4260  06C5  1283               	bcf	3,5	;RP0=0, select bank0
  4261  06C6  1303               	bcf	3,6	;RP1=0, select bank0
  4262  06C7  01A6               	clrf	SevenSegment_SelectChip@a_Chip2
  4263  06C8  01A7               	clrf	SevenSegment_SelectChip@a_Chip3
  4264  06C9  0AA7               	incf	SevenSegment_SelectChip@a_Chip3,f
  4265  06CA  01A8               	clrf	SevenSegment_SelectChip@a_Chip4
  4266  06CB  0AA8               	incf	SevenSegment_SelectChip@a_Chip4,f
  4267  06CC  3001               	movlw	1
  4268  06CD  120A  118A  241E  120A  118A  	fcall	_SevenSegment_SelectChip
  4269  06D2                     l3433:	
  4270                           
  4271                           ;heater.c: 377:         g_u8Sync_flag = 1;
  4272  06D2  1283               	bcf	3,5	;RP0=0, select bank0
  4273  06D3  1303               	bcf	3,6	;RP1=0, select bank0
  4274  06D4  01CE               	clrf	_g_u8Sync_flag
  4275  06D5  0ACE               	incf	_g_u8Sync_flag,f
  4276  06D6                     l3435:	
  4277                           
  4278                           ;heater.c: 378:         _delay((unsigned long)((5)*(8000000u/4000.0)));
  4279  06D6  300D               	movlw	13
  4280  06D7  1283               	bcf	3,5	;RP0=0, select bank0
  4281  06D8  1303               	bcf	3,6	;RP1=0, select bank0
  4282  06D9  00BA               	movwf	??_Heater_display_on_temperature+1
  4283  06DA  30FB               	movlw	251
  4284  06DB  00B9               	movwf	??_Heater_display_on_temperature
  4285  06DC                     u4337:	
  4286  06DC  0BB9               	decfsz	??_Heater_display_on_temperature,f
  4287  06DD  2EDC               	goto	u4337
  4288  06DE  0BBA               	decfsz	??_Heater_display_on_temperature+1,f
  4289  06DF  2EDC               	goto	u4337
  4290                           
  4291                           ;heater.c: 379:     }
  4292  06E0  2F0C               	goto	l667
  4293  06E1                     l3437:	
  4294                           
  4295                           ;heater.c: 381:     {;heater.c: 384:         SevenSegment_Display(g_u8Heater_real_time_t
      +                          emperature % 10 ,
  4296  06E1  01A9               	clrf	SevenSegment_Display@a_displayDot
  4297  06E2  0AA9               	incf	SevenSegment_Display@a_displayDot,f
  4298  06E3  300A               	movlw	10
  4299  06E4  00A0               	movwf	___awmod@divisor
  4300  06E5  3000               	movlw	0
  4301  06E6  00A1               	movwf	___awmod@divisor+1
  4302  06E7  085D               	movf	_g_u8Heater_real_time_temperature,w
  4303  06E8  00B9               	movwf	??_Heater_display_on_temperature
  4304  06E9  01BA               	clrf	??_Heater_display_on_temperature+1
  4305  06EA  0839               	movf	??_Heater_display_on_temperature,w
  4306  06EB  00A2               	movwf	___awmod@dividend
  4307  06EC  083A               	movf	??_Heater_display_on_temperature+1,w
  4308  06ED  00A3               	movwf	___awmod@dividend+1
  4309  06EE  120A  158A  2544  120A  118A  	fcall	___awmod
  4310  06F3  1283               	bcf	3,5	;RP0=0, select bank0
  4311  06F4  1303               	bcf	3,6	;RP1=0, select bank0
  4312  06F5  0820               	movf	?___awmod,w
  4313  06F6  120A  158A  22A1  120A  118A  	fcall	_SevenSegment_Display
  4314                           
  4315                           ;heater.c: 387:         SevenSegment_SelectChip(SEVEN_SEGMENT_DISABLE_CHIP ,
  4316  06FB  1283               	bcf	3,5	;RP0=0, select bank0
  4317  06FC  1303               	bcf	3,6	;RP1=0, select bank0
  4318  06FD  01A6               	clrf	SevenSegment_SelectChip@a_Chip2
  4319  06FE  0AA6               	incf	SevenSegment_SelectChip@a_Chip2,f
  4320  06FF  01A7               	clrf	SevenSegment_SelectChip@a_Chip3
  4321  0700  01A8               	clrf	SevenSegment_SelectChip@a_Chip4
  4322  0701  0AA8               	incf	SevenSegment_SelectChip@a_Chip4,f
  4323  0702  3001               	movlw	1
  4324  0703  120A  118A  241E  120A  118A  	fcall	_SevenSegment_SelectChip
  4325  0708                     l3439:	
  4326                           
  4327                           ;heater.c: 391:         g_u8Sync_flag = 0;
  4328  0708  1283               	bcf	3,5	;RP0=0, select bank0
  4329  0709  1303               	bcf	3,6	;RP1=0, select bank0
  4330  070A  01CE               	clrf	_g_u8Sync_flag
  4331  070B  2ED6               	goto	l3435
  4332  070C                     l667:	
  4333  070C  0008               	return
  4334  070D                     __end_of_Heater_display_on_temperature:	
  4335                           
  4336                           	psect	text27
  4337  0D44                     __ptext27:	
  4338 ;; *************** function ___awmod *****************
  4339 ;; Defined at:
  4340 ;;		line 5 in file "C:\Program Files (x86)\Microchip\xc8\v2.10\pic\sources\c90\common\awmod.c"
  4341 ;; Parameters:    Size  Location     Type
  4342 ;;  divisor         2    0[BANK0 ] int 
  4343 ;;  dividend        2    2[BANK0 ] int 
  4344 ;; Auto vars:     Size  Location     Type
  4345 ;;  sign            1    6[BANK0 ] unsigned char 
  4346 ;;  counter         1    5[BANK0 ] unsigned char 
  4347 ;; Return value:  Size  Location     Type
  4348 ;;                  2    0[BANK0 ] int 
  4349 ;; Registers used:
  4350 ;;		wreg, status,2, status,0
  4351 ;; Tracked objects:
  4352 ;;		On entry : 0/0
  4353 ;;		On exit  : 0/0
  4354 ;;		Unchanged: 0/0
  4355 ;; Data sizes:     COMMON   BANK0   BANK1   BANK3   BANK2
  4356 ;;      Params:         0       4       0       0       0
  4357 ;;      Locals:         0       2       0       0       0
  4358 ;;      Temps:          0       1       0       0       0
  4359 ;;      Totals:         0       7       0       0       0
  4360 ;;Total ram usage:        7 bytes
  4361 ;; Hardware stack levels used:    1
  4362 ;; Hardware stack levels required when called:    3
  4363 ;; This function calls:
  4364 ;;		Nothing
  4365 ;; This function is called by:
  4366 ;;		_Heater_display_on_temperature
  4367 ;; This function uses a non-reentrant model
  4368 ;;
  4369                           
  4370                           
  4371                           ;psect for function ___awmod
  4372  0D44                     ___awmod:	
  4373  0D44                     l3195:	
  4374                           ;incstack = 0
  4375                           ; Regs used in ___awmod: [wreg+status,2+status,0]
  4376                           
  4377  0D44  1283               	bcf	3,5	;RP0=0, select bank0
  4378  0D45  1303               	bcf	3,6	;RP1=0, select bank0
  4379  0D46  01A6               	clrf	___awmod@sign
  4380  0D47                     l3197:	
  4381  0D47  1FA3               	btfss	___awmod@dividend+1,7
  4382  0D48  2D4A               	goto	u3481
  4383  0D49  2D4B               	goto	u3480
  4384  0D4A                     u3481:	
  4385  0D4A  2D52               	goto	l3203
  4386  0D4B                     u3480:	
  4387  0D4B                     l3199:	
  4388  0D4B  09A2               	comf	___awmod@dividend,f
  4389  0D4C  09A3               	comf	___awmod@dividend+1,f
  4390  0D4D  0AA2               	incf	___awmod@dividend,f
  4391  0D4E  1903               	skipnz
  4392  0D4F  0AA3               	incf	___awmod@dividend+1,f
  4393  0D50                     l3201:	
  4394  0D50  01A6               	clrf	___awmod@sign
  4395  0D51  0AA6               	incf	___awmod@sign,f
  4396  0D52                     l3203:	
  4397  0D52  1FA1               	btfss	___awmod@divisor+1,7
  4398  0D53  2D55               	goto	u3491
  4399  0D54  2D56               	goto	u3490
  4400  0D55                     u3491:	
  4401  0D55  2D5B               	goto	l3207
  4402  0D56                     u3490:	
  4403  0D56                     l3205:	
  4404  0D56  09A0               	comf	___awmod@divisor,f
  4405  0D57  09A1               	comf	___awmod@divisor+1,f
  4406  0D58  0AA0               	incf	___awmod@divisor,f
  4407  0D59  1903               	skipnz
  4408  0D5A  0AA1               	incf	___awmod@divisor+1,f
  4409  0D5B                     l3207:	
  4410  0D5B  0820               	movf	___awmod@divisor,w
  4411  0D5C  0421               	iorwf	___awmod@divisor+1,w
  4412  0D5D  1903               	btfsc	3,2
  4413  0D5E  2D60               	goto	u3501
  4414  0D5F  2D61               	goto	u3500
  4415  0D60                     u3501:	
  4416  0D60  2D90               	goto	l3225
  4417  0D61                     u3500:	
  4418  0D61                     l3209:	
  4419  0D61  01A5               	clrf	___awmod@counter
  4420  0D62  0AA5               	incf	___awmod@counter,f
  4421  0D63  2D6F               	goto	l3215
  4422  0D64                     l3211:	
  4423  0D64  3001               	movlw	1
  4424  0D65                     u3515:	
  4425  0D65  1003               	clrc
  4426  0D66  0DA0               	rlf	___awmod@divisor,f
  4427  0D67  0DA1               	rlf	___awmod@divisor+1,f
  4428  0D68  3EFF               	addlw	-1
  4429  0D69  1D03               	skipz
  4430  0D6A  2D65               	goto	u3515
  4431  0D6B                     l3213:	
  4432  0D6B  3001               	movlw	1
  4433  0D6C  00A4               	movwf	??___awmod
  4434  0D6D  0824               	movf	??___awmod,w
  4435  0D6E  07A5               	addwf	___awmod@counter,f
  4436  0D6F                     l3215:	
  4437  0D6F  1FA1               	btfss	___awmod@divisor+1,7
  4438  0D70  2D72               	goto	u3521
  4439  0D71  2D73               	goto	u3520
  4440  0D72                     u3521:	
  4441  0D72  2D64               	goto	l3211
  4442  0D73                     u3520:	
  4443  0D73                     l3217:	
  4444  0D73  0821               	movf	___awmod@divisor+1,w
  4445  0D74  0223               	subwf	___awmod@dividend+1,w
  4446  0D75  1D03               	skipz
  4447  0D76  2D79               	goto	u3535
  4448  0D77  0820               	movf	___awmod@divisor,w
  4449  0D78  0222               	subwf	___awmod@dividend,w
  4450  0D79                     u3535:	
  4451  0D79  1C03               	skipc
  4452  0D7A  2D7C               	goto	u3531
  4453  0D7B  2D7D               	goto	u3530
  4454  0D7C                     u3531:	
  4455  0D7C  2D83               	goto	l3221
  4456  0D7D                     u3530:	
  4457  0D7D                     l3219:	
  4458  0D7D  0820               	movf	___awmod@divisor,w
  4459  0D7E  02A2               	subwf	___awmod@dividend,f
  4460  0D7F  0821               	movf	___awmod@divisor+1,w
  4461  0D80  1C03               	skipc
  4462  0D81  03A3               	decf	___awmod@dividend+1,f
  4463  0D82  02A3               	subwf	___awmod@dividend+1,f
  4464  0D83                     l3221:	
  4465  0D83  3001               	movlw	1
  4466  0D84                     u3545:	
  4467  0D84  1003               	clrc
  4468  0D85  0CA1               	rrf	___awmod@divisor+1,f
  4469  0D86  0CA0               	rrf	___awmod@divisor,f
  4470  0D87  3EFF               	addlw	-1
  4471  0D88  1D03               	skipz
  4472  0D89  2D84               	goto	u3545
  4473  0D8A                     l3223:	
  4474  0D8A  3001               	movlw	1
  4475  0D8B  02A5               	subwf	___awmod@counter,f
  4476  0D8C  1D03               	btfss	3,2
  4477  0D8D  2D8F               	goto	u3551
  4478  0D8E  2D90               	goto	u3550
  4479  0D8F                     u3551:	
  4480  0D8F  2D73               	goto	l3217
  4481  0D90                     u3550:	
  4482  0D90                     l3225:	
  4483  0D90  0826               	movf	___awmod@sign,w
  4484  0D91  1903               	btfsc	3,2
  4485  0D92  2D94               	goto	u3561
  4486  0D93  2D95               	goto	u3560
  4487  0D94                     u3561:	
  4488  0D94  2D9A               	goto	l3229
  4489  0D95                     u3560:	
  4490  0D95                     l3227:	
  4491  0D95  09A2               	comf	___awmod@dividend,f
  4492  0D96  09A3               	comf	___awmod@dividend+1,f
  4493  0D97  0AA2               	incf	___awmod@dividend,f
  4494  0D98  1903               	skipnz
  4495  0D99  0AA3               	incf	___awmod@dividend+1,f
  4496  0D9A                     l3229:	
  4497  0D9A  0823               	movf	___awmod@dividend+1,w
  4498  0D9B  00A1               	movwf	?___awmod+1
  4499  0D9C  0822               	movf	___awmod@dividend,w
  4500  0D9D  00A0               	movwf	?___awmod
  4501  0D9E                     l973:	
  4502  0D9E  0008               	return
  4503  0D9F                     __end_of___awmod:	
  4504                           
  4505                           	psect	text28
  4506  0F2D                     __ptext28:	
  4507 ;; *************** function ___awdiv *****************
  4508 ;; Defined at:
  4509 ;;		line 5 in file "C:\Program Files (x86)\Microchip\xc8\v2.10\pic\sources\c90\common\awdiv.c"
  4510 ;; Parameters:    Size  Location     Type
  4511 ;;  divisor         2    0[BANK0 ] int 
  4512 ;;  dividend        2    2[BANK0 ] int 
  4513 ;; Auto vars:     Size  Location     Type
  4514 ;;  quotient        2    7[BANK0 ] int 
  4515 ;;  sign            1    6[BANK0 ] unsigned char 
  4516 ;;  counter         1    5[BANK0 ] unsigned char 
  4517 ;; Return value:  Size  Location     Type
  4518 ;;                  2    0[BANK0 ] int 
  4519 ;; Registers used:
  4520 ;;		wreg, status,2, status,0
  4521 ;; Tracked objects:
  4522 ;;		On entry : 0/0
  4523 ;;		On exit  : 0/0
  4524 ;;		Unchanged: 0/0
  4525 ;; Data sizes:     COMMON   BANK0   BANK1   BANK3   BANK2
  4526 ;;      Params:         0       4       0       0       0
  4527 ;;      Locals:         0       4       0       0       0
  4528 ;;      Temps:          0       1       0       0       0
  4529 ;;      Totals:         0       9       0       0       0
  4530 ;;Total ram usage:        9 bytes
  4531 ;; Hardware stack levels used:    1
  4532 ;; Hardware stack levels required when called:    3
  4533 ;; This function calls:
  4534 ;;		Nothing
  4535 ;; This function is called by:
  4536 ;;		_Heater_display_on_temperature
  4537 ;; This function uses a non-reentrant model
  4538 ;;
  4539                           
  4540                           
  4541                           ;psect for function ___awdiv
  4542  0F2D                     ___awdiv:	
  4543  0F2D                     l3151:	
  4544                           ;incstack = 0
  4545                           ; Regs used in ___awdiv: [wreg+status,2+status,0]
  4546                           
  4547  0F2D  1283               	bcf	3,5	;RP0=0, select bank0
  4548  0F2E  1303               	bcf	3,6	;RP1=0, select bank0
  4549  0F2F  01A6               	clrf	___awdiv@sign
  4550  0F30                     l3153:	
  4551  0F30  1FA1               	btfss	___awdiv@divisor+1,7
  4552  0F31  2F33               	goto	u3381
  4553  0F32  2F34               	goto	u3380
  4554  0F33                     u3381:	
  4555  0F33  2F3B               	goto	l3159
  4556  0F34                     u3380:	
  4557  0F34                     l3155:	
  4558  0F34  09A0               	comf	___awdiv@divisor,f
  4559  0F35  09A1               	comf	___awdiv@divisor+1,f
  4560  0F36  0AA0               	incf	___awdiv@divisor,f
  4561  0F37  1903               	skipnz
  4562  0F38  0AA1               	incf	___awdiv@divisor+1,f
  4563  0F39                     l3157:	
  4564  0F39  01A6               	clrf	___awdiv@sign
  4565  0F3A  0AA6               	incf	___awdiv@sign,f
  4566  0F3B                     l3159:	
  4567  0F3B  1FA3               	btfss	___awdiv@dividend+1,7
  4568  0F3C  2F3E               	goto	u3391
  4569  0F3D  2F3F               	goto	u3390
  4570  0F3E                     u3391:	
  4571  0F3E  2F48               	goto	l3165
  4572  0F3F                     u3390:	
  4573  0F3F                     l3161:	
  4574  0F3F  09A2               	comf	___awdiv@dividend,f
  4575  0F40  09A3               	comf	___awdiv@dividend+1,f
  4576  0F41  0AA2               	incf	___awdiv@dividend,f
  4577  0F42  1903               	skipnz
  4578  0F43  0AA3               	incf	___awdiv@dividend+1,f
  4579  0F44                     l3163:	
  4580  0F44  3001               	movlw	1
  4581  0F45  00A4               	movwf	??___awdiv
  4582  0F46  0824               	movf	??___awdiv,w
  4583  0F47  06A6               	xorwf	___awdiv@sign,f
  4584  0F48                     l3165:	
  4585  0F48  01A7               	clrf	___awdiv@quotient
  4586  0F49  01A8               	clrf	___awdiv@quotient+1
  4587  0F4A                     l3167:	
  4588  0F4A  0820               	movf	___awdiv@divisor,w
  4589  0F4B  0421               	iorwf	___awdiv@divisor+1,w
  4590  0F4C  1903               	btfsc	3,2
  4591  0F4D  2F4F               	goto	u3401
  4592  0F4E  2F50               	goto	u3400
  4593  0F4F                     u3401:	
  4594  0F4F  2F87               	goto	l3187
  4595  0F50                     u3400:	
  4596  0F50                     l3169:	
  4597  0F50  01A5               	clrf	___awdiv@counter
  4598  0F51  0AA5               	incf	___awdiv@counter,f
  4599  0F52  2F5E               	goto	l3175
  4600  0F53                     l3171:	
  4601  0F53  3001               	movlw	1
  4602  0F54                     u3415:	
  4603  0F54  1003               	clrc
  4604  0F55  0DA0               	rlf	___awdiv@divisor,f
  4605  0F56  0DA1               	rlf	___awdiv@divisor+1,f
  4606  0F57  3EFF               	addlw	-1
  4607  0F58  1D03               	skipz
  4608  0F59  2F54               	goto	u3415
  4609  0F5A                     l3173:	
  4610  0F5A  3001               	movlw	1
  4611  0F5B  00A4               	movwf	??___awdiv
  4612  0F5C  0824               	movf	??___awdiv,w
  4613  0F5D  07A5               	addwf	___awdiv@counter,f
  4614  0F5E                     l3175:	
  4615  0F5E  1FA1               	btfss	___awdiv@divisor+1,7
  4616  0F5F  2F61               	goto	u3421
  4617  0F60  2F62               	goto	u3420
  4618  0F61                     u3421:	
  4619  0F61  2F53               	goto	l3171
  4620  0F62                     u3420:	
  4621  0F62                     l3177:	
  4622  0F62  3001               	movlw	1
  4623  0F63                     u3435:	
  4624  0F63  1003               	clrc
  4625  0F64  0DA7               	rlf	___awdiv@quotient,f
  4626  0F65  0DA8               	rlf	___awdiv@quotient+1,f
  4627  0F66  3EFF               	addlw	-1
  4628  0F67  1D03               	skipz
  4629  0F68  2F63               	goto	u3435
  4630  0F69  0821               	movf	___awdiv@divisor+1,w
  4631  0F6A  0223               	subwf	___awdiv@dividend+1,w
  4632  0F6B  1D03               	skipz
  4633  0F6C  2F6F               	goto	u3445
  4634  0F6D  0820               	movf	___awdiv@divisor,w
  4635  0F6E  0222               	subwf	___awdiv@dividend,w
  4636  0F6F                     u3445:	
  4637  0F6F  1C03               	skipc
  4638  0F70  2F72               	goto	u3441
  4639  0F71  2F73               	goto	u3440
  4640  0F72                     u3441:	
  4641  0F72  2F7A               	goto	l3183
  4642  0F73                     u3440:	
  4643  0F73                     l3179:	
  4644  0F73  0820               	movf	___awdiv@divisor,w
  4645  0F74  02A2               	subwf	___awdiv@dividend,f
  4646  0F75  0821               	movf	___awdiv@divisor+1,w
  4647  0F76  1C03               	skipc
  4648  0F77  03A3               	decf	___awdiv@dividend+1,f
  4649  0F78  02A3               	subwf	___awdiv@dividend+1,f
  4650  0F79                     l3181:	
  4651  0F79  1427               	bsf	___awdiv@quotient,0
  4652  0F7A                     l3183:	
  4653  0F7A  3001               	movlw	1
  4654  0F7B                     u3455:	
  4655  0F7B  1003               	clrc
  4656  0F7C  0CA1               	rrf	___awdiv@divisor+1,f
  4657  0F7D  0CA0               	rrf	___awdiv@divisor,f
  4658  0F7E  3EFF               	addlw	-1
  4659  0F7F  1D03               	skipz
  4660  0F80  2F7B               	goto	u3455
  4661  0F81                     l3185:	
  4662  0F81  3001               	movlw	1
  4663  0F82  02A5               	subwf	___awdiv@counter,f
  4664  0F83  1D03               	btfss	3,2
  4665  0F84  2F86               	goto	u3461
  4666  0F85  2F87               	goto	u3460
  4667  0F86                     u3461:	
  4668  0F86  2F62               	goto	l3177
  4669  0F87                     u3460:	
  4670  0F87                     l3187:	
  4671  0F87  0826               	movf	___awdiv@sign,w
  4672  0F88  1903               	btfsc	3,2
  4673  0F89  2F8B               	goto	u3471
  4674  0F8A  2F8C               	goto	u3470
  4675  0F8B                     u3471:	
  4676  0F8B  2F91               	goto	l3191
  4677  0F8C                     u3470:	
  4678  0F8C                     l3189:	
  4679  0F8C  09A7               	comf	___awdiv@quotient,f
  4680  0F8D  09A8               	comf	___awdiv@quotient+1,f
  4681  0F8E  0AA7               	incf	___awdiv@quotient,f
  4682  0F8F  1903               	skipnz
  4683  0F90  0AA8               	incf	___awdiv@quotient+1,f
  4684  0F91                     l3191:	
  4685  0F91  0828               	movf	___awdiv@quotient+1,w
  4686  0F92  00A1               	movwf	?___awdiv+1
  4687  0F93  0827               	movf	___awdiv@quotient,w
  4688  0F94  00A0               	movwf	?___awdiv
  4689  0F95                     l960:	
  4690  0F95  0008               	return
  4691  0F96                     __end_of___awdiv:	
  4692                           
  4693                           	psect	text29
  4694  0AA1                     __ptext29:	
  4695 ;; *************** function _SevenSegment_Display *****************
  4696 ;; Defined at:
  4697 ;;		line 51 in file "SevenSegment.c"
  4698 ;; Parameters:    Size  Location     Type
  4699 ;;  a_u8displayN    1    wreg     unsigned char 
  4700 ;;  a_displayDot    1    9[BANK0 ] enum E10
  4701 ;; Auto vars:     Size  Location     Type
  4702 ;;  a_u8displayN    1   24[BANK0 ] unsigned char 
  4703 ;;  u8numberRepr   10   14[BANK0 ] unsigned char [10]
  4704 ;; Return value:  Size  Location     Type
  4705 ;;                  1    wreg      void 
  4706 ;; Registers used:
  4707 ;;		wreg, fsr0l, fsr0h, status,2, status,0, pclath, cstack
  4708 ;; Tracked objects:
  4709 ;;		On entry : 0/0
  4710 ;;		On exit  : 0/0
  4711 ;;		Unchanged: 0/0
  4712 ;; Data sizes:     COMMON   BANK0   BANK1   BANK3   BANK2
  4713 ;;      Params:         0       1       0       0       0
  4714 ;;      Locals:         0      11       0       0       0
  4715 ;;      Temps:          0       4       0       0       0
  4716 ;;      Totals:         0      16       0       0       0
  4717 ;;Total ram usage:       16 bytes
  4718 ;; Hardware stack levels used:    1
  4719 ;; Hardware stack levels required when called:    4
  4720 ;; This function calls:
  4721 ;;		_GPIO_WriteOnPin
  4722 ;;		_GPIO_WriteOnPort
  4723 ;; This function is called by:
  4724 ;;		_Heater_display_on_temperature
  4725 ;; This function uses a non-reentrant model
  4726 ;;
  4727                           
  4728                           
  4729                           ;psect for function _SevenSegment_Display
  4730  0AA1                     _SevenSegment_Display:	
  4731                           
  4732                           ;incstack = 0
  4733                           ; Regs used in _SevenSegment_Display: [wreg-fsr0h+status,2+status,0+pclath+cstack]
  4734                           ;SevenSegment_Display@a_u8displayNumber stored from wreg
  4735  0AA1  1283               	bcf	3,5	;RP0=0, select bank0
  4736  0AA2  1303               	bcf	3,6	;RP1=0, select bank0
  4737  0AA3  00B8               	movwf	SevenSegment_Display@a_u8displayNumber
  4738  0AA4                     l3115:	
  4739                           
  4740                           ;SevenSegment.c: 51: void SevenSegment_Display(uint8 a_u8displayNumber , EnumSevenSegmen
      +                          t_DotStatus_t a_displayDot);SevenSegment.c: 52: {;SevenSegment.c: 57:     uint8 u8number
      +                          Representation[10] = { 0x3F , 0x06 , 0x5B , 0x4F , 0x66 , 0x6D , 0x7D , 0x07 , 0x7F , 0x
      +                          6F };
  4741  0AA4  302E               	movlw	SevenSegment_Display@u8numberRepresentation& (0+255)
  4742  0AA5  0084               	movwf	4
  4743  0AA6  3050               	movlw	low SevenSegment_Display@F56
  4744  0AA7  00AA               	movwf	??_SevenSegment_Display
  4745  0AA8  0804               	movf	4,w
  4746  0AA9  00AB               	movwf	??_SevenSegment_Display+1
  4747  0AAA  300A               	movlw	10
  4748  0AAB  00AC               	movwf	??_SevenSegment_Display+2
  4749  0AAC                     u3320:	
  4750  0AAC  082A               	movf	??_SevenSegment_Display,w
  4751  0AAD  0084               	movwf	4
  4752  0AAE  1383               	bcf	3,7	;select IRP bank0
  4753  0AAF  0800               	movf	0,w
  4754  0AB0  00AD               	movwf	??_SevenSegment_Display+3
  4755  0AB1  0AAA               	incf	??_SevenSegment_Display,f
  4756  0AB2  082B               	movf	??_SevenSegment_Display+1,w
  4757  0AB3  0084               	movwf	4
  4758  0AB4  082D               	movf	??_SevenSegment_Display+3,w
  4759  0AB5  0080               	movwf	0
  4760  0AB6  0AAB               	incf	??_SevenSegment_Display+1,f
  4761  0AB7  0BAC               	decfsz	??_SevenSegment_Display+2,f
  4762  0AB8  2AAC               	goto	u3320
  4763  0AB9                     l3117:	
  4764                           
  4765                           ;SevenSegment.c: 60:     GPIO_WriteOnPort(3u , u8numberRepresentation[a_u8displayNumber]
      +                          );
  4766  0AB9  0838               	movf	SevenSegment_Display@a_u8displayNumber,w
  4767  0ABA  3E2E               	addlw	(low (SevenSegment_Display@u8numberRepresentation| 0))& (0+255)
  4768  0ABB  0084               	movwf	4
  4769  0ABC  0800               	movf	0,w
  4770  0ABD  00AA               	movwf	??_SevenSegment_Display
  4771  0ABE  082A               	movf	??_SevenSegment_Display,w
  4772  0ABF  00A0               	movwf	GPIO_WriteOnPort@a_u8value
  4773  0AC0  3003               	movlw	3
  4774  0AC1  120A  158A  225C  120A  158A  	fcall	_GPIO_WriteOnPort
  4775  0AC6                     l3119:	
  4776                           
  4777                           ;SevenSegment.c: 72:     if(a_displayDot == SEVEN_SEGMENT_DISPLAY_DOT)
  4778  0AC6  1283               	bcf	3,5	;RP0=0, select bank0
  4779  0AC7  1303               	bcf	3,6	;RP1=0, select bank0
  4780  0AC8  0829               	movf	SevenSegment_Display@a_displayDot,w
  4781  0AC9  1D03               	btfss	3,2
  4782  0ACA  2ACC               	goto	u3331
  4783  0ACB  2ACD               	goto	u3330
  4784  0ACC                     u3331:	
  4785  0ACC  2ADA               	goto	l3123
  4786  0ACD                     u3330:	
  4787  0ACD                     l3121:	
  4788                           
  4789                           ;SevenSegment.c: 73:     {;SevenSegment.c: 74:         GPIO_WriteOnPin(3u , 7u , 1u);
  4790  0ACD  3007               	movlw	7
  4791  0ACE  00AA               	movwf	??_SevenSegment_Display
  4792  0ACF  082A               	movf	??_SevenSegment_Display,w
  4793  0AD0  00A0               	movwf	GPIO_WriteOnPin@a_u8pin
  4794  0AD1  01A1               	clrf	GPIO_WriteOnPin@a_u8value
  4795  0AD2  0AA1               	incf	GPIO_WriteOnPin@a_u8value,f
  4796  0AD3  3003               	movlw	3
  4797  0AD4  120A  118A  2257  120A  158A  	fcall	_GPIO_WriteOnPin
  4798                           
  4799                           ;SevenSegment.c: 75:     }
  4800  0AD9  2AE5               	goto	l489
  4801  0ADA                     l3123:	
  4802                           
  4803                           ;SevenSegment.c: 77:     {;SevenSegment.c: 78:         GPIO_WriteOnPin(3u , 7u , 0u);
  4804  0ADA  3007               	movlw	7
  4805  0ADB  00AA               	movwf	??_SevenSegment_Display
  4806  0ADC  082A               	movf	??_SevenSegment_Display,w
  4807  0ADD  00A0               	movwf	GPIO_WriteOnPin@a_u8pin
  4808  0ADE  01A1               	clrf	GPIO_WriteOnPin@a_u8value
  4809  0ADF  3003               	movlw	3
  4810  0AE0  120A  118A  2257  120A  158A  	fcall	_GPIO_WriteOnPin
  4811  0AE5                     l489:	
  4812  0AE5  0008               	return
  4813  0AE6                     __end_of_SevenSegment_Display:	
  4814                           
  4815                           	psect	text30
  4816  0A5C                     __ptext30:	
  4817 ;; *************** function _GPIO_WriteOnPort *****************
  4818 ;; Defined at:
  4819 ;;		line 463 in file "GPIO.c"
  4820 ;; Parameters:    Size  Location     Type
  4821 ;;  a_u8port        1    wreg     unsigned char 
  4822 ;;  a_u8value       1    0[BANK0 ] unsigned char 
  4823 ;; Auto vars:     Size  Location     Type
  4824 ;;  a_u8port        1    4[BANK0 ] unsigned char 
  4825 ;;  retVal          1    0        enum E10
  4826 ;; Return value:  Size  Location     Type
  4827 ;;                  1    wreg      enum E10
  4828 ;; Registers used:
  4829 ;;		wreg, fsr0l, fsr0h, status,2, status,0
  4830 ;; Tracked objects:
  4831 ;;		On entry : 0/0
  4832 ;;		On exit  : 0/0
  4833 ;;		Unchanged: 0/0
  4834 ;; Data sizes:     COMMON   BANK0   BANK1   BANK3   BANK2
  4835 ;;      Params:         0       1       0       0       0
  4836 ;;      Locals:         0       2       0       0       0
  4837 ;;      Temps:          0       2       0       0       0
  4838 ;;      Totals:         0       5       0       0       0
  4839 ;;Total ram usage:        5 bytes
  4840 ;; Hardware stack levels used:    1
  4841 ;; Hardware stack levels required when called:    3
  4842 ;; This function calls:
  4843 ;;		Nothing
  4844 ;; This function is called by:
  4845 ;;		_SevenSegment_Display
  4846 ;; This function uses a non-reentrant model
  4847 ;;
  4848                           
  4849                           
  4850                           ;psect for function _GPIO_WriteOnPort
  4851  0A5C                     _GPIO_WriteOnPort:	
  4852                           
  4853                           ;incstack = 0
  4854                           ; Regs used in _GPIO_WriteOnPort: [wreg-fsr0h+status,2+status,0]
  4855                           ;GPIO_WriteOnPort@a_u8port stored from wreg
  4856  0A5C  1283               	bcf	3,5	;RP0=0, select bank0
  4857  0A5D  1303               	bcf	3,6	;RP1=0, select bank0
  4858  0A5E  00A4               	movwf	GPIO_WriteOnPort@a_u8port
  4859  0A5F                     l2919:	
  4860                           
  4861                           ;GPIO.c: 468:     switch(a_u8port)
  4862  0A5F  2A87               	goto	l2939
  4863  0A60                     l2921:	
  4864                           
  4865                           ;GPIO.c: 471:             *(volatile uint8*)0x05 &= 0x30;
  4866  0A60  3030               	movlw	48
  4867  0A61  00A1               	movwf	??_GPIO_WriteOnPort
  4868  0A62  0821               	movf	??_GPIO_WriteOnPort,w
  4869  0A63  0585               	andwf	5,f	;volatile
  4870                           
  4871                           ;GPIO.c: 472:             *(volatile uint8*)0x05 |= (0x3F & a_u8value);
  4872  0A64  0820               	movf	GPIO_WriteOnPort@a_u8value,w
  4873  0A65  393F               	andlw	63
  4874  0A66  00A1               	movwf	??_GPIO_WriteOnPort
  4875  0A67  0821               	movf	??_GPIO_WriteOnPort,w
  4876  0A68  0485               	iorwf	5,f	;volatile
  4877                           
  4878                           ;GPIO.c: 473:             break;
  4879  0A69  2AA0               	goto	l249
  4880  0A6A                     l2923:	
  4881                           
  4882                           ;GPIO.c: 475:             *(volatile uint8*)0x06 &= 0x00;
  4883  0A6A  0186               	clrf	6	;volatile
  4884  0A6B                     l2925:	
  4885                           
  4886                           ;GPIO.c: 476:             *(volatile uint8*)0x06 |= a_u8value;
  4887  0A6B  0820               	movf	GPIO_WriteOnPort@a_u8value,w
  4888  0A6C  00A1               	movwf	??_GPIO_WriteOnPort
  4889  0A6D  0821               	movf	??_GPIO_WriteOnPort,w
  4890  0A6E  0486               	iorwf	6,f	;volatile
  4891                           
  4892                           ;GPIO.c: 477:             break;
  4893  0A6F  2AA0               	goto	l249
  4894  0A70                     l2927:	
  4895                           
  4896                           ;GPIO.c: 479:             *(volatile uint8*)0x07 &= 0x00;
  4897  0A70  0187               	clrf	7	;volatile
  4898  0A71                     l2929:	
  4899                           
  4900                           ;GPIO.c: 480:             *(volatile uint8*)0x07 |= a_u8value;
  4901  0A71  0820               	movf	GPIO_WriteOnPort@a_u8value,w
  4902  0A72  00A1               	movwf	??_GPIO_WriteOnPort
  4903  0A73  0821               	movf	??_GPIO_WriteOnPort,w
  4904  0A74  0487               	iorwf	7,f	;volatile
  4905                           
  4906                           ;GPIO.c: 481:             break;
  4907  0A75  2AA0               	goto	l249
  4908  0A76                     l2931:	
  4909                           
  4910                           ;GPIO.c: 483:             *(volatile uint8*)0x08 &= 0x00;
  4911  0A76  0188               	clrf	8	;volatile
  4912  0A77                     l2933:	
  4913                           
  4914                           ;GPIO.c: 484:             *(volatile uint8*)0x08 |= a_u8value;
  4915  0A77  0820               	movf	GPIO_WriteOnPort@a_u8value,w
  4916  0A78  00A1               	movwf	??_GPIO_WriteOnPort
  4917  0A79  0821               	movf	??_GPIO_WriteOnPort,w
  4918  0A7A  0488               	iorwf	8,f	;volatile
  4919                           
  4920                           ;GPIO.c: 485:             break;
  4921  0A7B  2AA0               	goto	l249
  4922  0A7C                     l2935:	
  4923                           
  4924                           ;GPIO.c: 487:             *(volatile uint8*)0x09 &= 0xF8;
  4925  0A7C  30F8               	movlw	248
  4926  0A7D  00A1               	movwf	??_GPIO_WriteOnPort
  4927  0A7E  0821               	movf	??_GPIO_WriteOnPort,w
  4928  0A7F  0589               	andwf	9,f	;volatile
  4929                           
  4930                           ;GPIO.c: 488:             *(volatile uint8*)0x09 |= (a_u8value & 0x07);
  4931  0A80  0820               	movf	GPIO_WriteOnPort@a_u8value,w
  4932  0A81  3907               	andlw	7
  4933  0A82  00A1               	movwf	??_GPIO_WriteOnPort
  4934  0A83  0821               	movf	??_GPIO_WriteOnPort,w
  4935  0A84  0489               	iorwf	9,f	;volatile
  4936                           
  4937                           ;GPIO.c: 489:             break;
  4938  0A85  2AA0               	goto	l249
  4939  0A86                     l248:	
  4940                           ;GPIO.c: 490:         default:
  4941                           
  4942                           
  4943                           ;GPIO.c: 493:             break;
  4944  0A86  2AA0               	goto	l249
  4945  0A87                     l2939:	
  4946  0A87  0824               	movf	GPIO_WriteOnPort@a_u8port,w
  4947  0A88  00A1               	movwf	??_GPIO_WriteOnPort
  4948  0A89  01A2               	clrf	??_GPIO_WriteOnPort+1
  4949                           
  4950                           ; Switch on 2 bytes has been partitioned into a top level switch of size 1, and 1 sub-sw
      +                          itches
  4951                           ; Switch size 1, requested type "simple"
  4952                           ; Number of cases is 1, Range of values is 0 to 0
  4953                           ; switch strategies available:
  4954                           ; Name         Instructions Cycles
  4955                           ; simple_byte            4     3 (average)
  4956                           ; direct_byte           11     8 (fixed)
  4957                           ; jumptable            260     6 (fixed)
  4958                           ;	Chosen strategy is simple_byte
  4959  0A8A  0822               	movf	??_GPIO_WriteOnPort+1,w
  4960  0A8B  3A00               	xorlw	0	; case 0
  4961  0A8C  1903               	skipnz
  4962  0A8D  2A8F               	goto	l4075
  4963  0A8E  2A86               	goto	l248
  4964  0A8F                     l4075:	
  4965                           
  4966                           ; Switch size 1, requested type "simple"
  4967                           ; Number of cases is 5, Range of values is 0 to 4
  4968                           ; switch strategies available:
  4969                           ; Name         Instructions Cycles
  4970                           ; simple_byte           16     9 (average)
  4971                           ; direct_byte           23     8 (fixed)
  4972                           ; jumptable            260     6 (fixed)
  4973                           ;	Chosen strategy is simple_byte
  4974  0A8F  0821               	movf	??_GPIO_WriteOnPort,w
  4975  0A90  3A00               	xorlw	0	; case 0
  4976  0A91  1903               	skipnz
  4977  0A92  2A60               	goto	l2921
  4978  0A93  3A01               	xorlw	1	; case 1
  4979  0A94  1903               	skipnz
  4980  0A95  2A6A               	goto	l2923
  4981  0A96  3A03               	xorlw	3	; case 2
  4982  0A97  1903               	skipnz
  4983  0A98  2A70               	goto	l2927
  4984  0A99  3A01               	xorlw	1	; case 3
  4985  0A9A  1903               	skipnz
  4986  0A9B  2A76               	goto	l2931
  4987  0A9C  3A07               	xorlw	7	; case 4
  4988  0A9D  1903               	skipnz
  4989  0A9E  2A7C               	goto	l2935
  4990  0A9F  2A86               	goto	l248
  4991  0AA0                     l249:	
  4992  0AA0  0008               	return
  4993  0AA1                     __end_of_GPIO_WriteOnPort:	
  4994                           
  4995                           	psect	text31
  4996  08B8                     __ptext31:	
  4997 ;; *************** function _Heater_display_off_temperature *****************
  4998 ;; Defined at:
  4999 ;;		line 252 in file "heater.c"
  5000 ;; Parameters:    Size  Location     Type
  5001 ;;		None
  5002 ;; Auto vars:     Size  Location     Type
  5003 ;;		None
  5004 ;; Return value:  Size  Location     Type
  5005 ;;                  1    wreg      void 
  5006 ;; Registers used:
  5007 ;;		wreg, fsr0l, fsr0h, status,2, status,0, pclath, cstack
  5008 ;; Tracked objects:
  5009 ;;		On entry : 0/0
  5010 ;;		On exit  : 0/0
  5011 ;;		Unchanged: 0/0
  5012 ;; Data sizes:     COMMON   BANK0   BANK1   BANK3   BANK2
  5013 ;;      Params:         0       0       0       0       0
  5014 ;;      Locals:         0       0       0       0       0
  5015 ;;      Temps:          0       0       0       0       0
  5016 ;;      Totals:         0       0       0       0       0
  5017 ;;Total ram usage:        0 bytes
  5018 ;; Hardware stack levels used:    1
  5019 ;; Hardware stack levels required when called:    5
  5020 ;; This function calls:
  5021 ;;		_SevenSegment_SelectChip
  5022 ;; This function is called by:
  5023 ;;		_Heater_blank_temperature
  5024 ;; This function uses a non-reentrant model
  5025 ;;
  5026                           
  5027                           
  5028                           ;psect for function _Heater_display_off_temperature
  5029  08B8                     _Heater_display_off_temperature:	
  5030  08B8                     l3545:	
  5031                           ;incstack = 0
  5032                           ; Regs used in _Heater_display_off_temperature: [wreg-fsr0h+status,2+status,0+pclath+cst
      +                          ack]
  5033                           
  5034                           
  5035                           ;heater.c: 255:     SevenSegment_SelectChip(SEVEN_SEGMENT_DISABLE_CHIP , SEVEN_SEGMENT_D
      +                          ISABLE_CHIP ,
  5036  08B8  1283               	bcf	3,5	;RP0=0, select bank0
  5037  08B9  1303               	bcf	3,6	;RP1=0, select bank0
  5038  08BA  01A6               	clrf	SevenSegment_SelectChip@a_Chip2
  5039  08BB  0AA6               	incf	SevenSegment_SelectChip@a_Chip2,f
  5040  08BC  01A7               	clrf	SevenSegment_SelectChip@a_Chip3
  5041  08BD  0AA7               	incf	SevenSegment_SelectChip@a_Chip3,f
  5042  08BE  01A8               	clrf	SevenSegment_SelectChip@a_Chip4
  5043  08BF  0AA8               	incf	SevenSegment_SelectChip@a_Chip4,f
  5044  08C0  3001               	movlw	1
  5045  08C1  120A  118A  241E  120A  158A  	fcall	_SevenSegment_SelectChip
  5046  08C6                     l3547:	
  5047                           
  5048                           ;heater.c: 258:     g_u8Sync_flag = 0;
  5049  08C6  1283               	bcf	3,5	;RP0=0, select bank0
  5050  08C7  1303               	bcf	3,6	;RP1=0, select bank0
  5051  08C8  01CE               	clrf	_g_u8Sync_flag
  5052  08C9                     l650:	
  5053  08C9  0008               	return
  5054  08CA                     __end_of_Heater_display_off_temperature:	
  5055                           
  5056                           	psect	text32
  5057  041E                     __ptext32:	
  5058 ;; *************** function _SevenSegment_SelectChip *****************
  5059 ;; Defined at:
  5060 ;;		line 37 in file "SevenSegment_unportablePart.c"
  5061 ;; Parameters:    Size  Location     Type
  5062 ;;  a_Chip1         1    wreg     enum E2
  5063 ;;  a_Chip2         1    6[BANK0 ] enum E2
  5064 ;;  a_Chip3         1    7[BANK0 ] enum E2
  5065 ;;  a_Chip4         1    8[BANK0 ] enum E2
  5066 ;; Auto vars:     Size  Location     Type
  5067 ;;  a_Chip1         1   10[BANK0 ] enum E2
  5068 ;; Return value:  Size  Location     Type
  5069 ;;                  1    wreg      void 
  5070 ;; Registers used:
  5071 ;;		wreg, fsr0l, fsr0h, status,2, status,0, pclath, cstack
  5072 ;; Tracked objects:
  5073 ;;		On entry : 0/0
  5074 ;;		On exit  : 0/0
  5075 ;;		Unchanged: 0/0
  5076 ;; Data sizes:     COMMON   BANK0   BANK1   BANK3   BANK2
  5077 ;;      Params:         0       3       0       0       0
  5078 ;;      Locals:         0       1       0       0       0
  5079 ;;      Temps:          0       1       0       0       0
  5080 ;;      Totals:         0       5       0       0       0
  5081 ;;Total ram usage:        5 bytes
  5082 ;; Hardware stack levels used:    1
  5083 ;; Hardware stack levels required when called:    4
  5084 ;; This function calls:
  5085 ;;		_GPIO_SetPinDirection
  5086 ;;		_GPIO_WriteOnPin
  5087 ;; This function is called by:
  5088 ;;		_Heater_turn_off
  5089 ;;		_Heater_display_off_temperature
  5090 ;;		_Heater_display_on_temperature
  5091 ;; This function uses a non-reentrant model
  5092 ;;
  5093                           
  5094                           
  5095                           ;psect for function _SevenSegment_SelectChip
  5096  041E                     _SevenSegment_SelectChip:	
  5097                           
  5098                           ;incstack = 0
  5099                           ; Regs used in _SevenSegment_SelectChip: [wreg-fsr0h+status,2+status,0+pclath+cstack]
  5100                           ;SevenSegment_SelectChip@a_Chip1 stored from wreg
  5101  041E  1283               	bcf	3,5	;RP0=0, select bank0
  5102  041F  1303               	bcf	3,6	;RP1=0, select bank0
  5103  0420  00AA               	movwf	SevenSegment_SelectChip@a_Chip1
  5104  0421                     l3125:	
  5105                           
  5106                           ;SevenSegment_unportablePart.c: 37: void SevenSegment_SelectChip(EnumSevenSegment_Status
      +                          _t a_Chip1 , EnumSevenSegment_Status_t a_Chip2 ,;SevenSegment_unportablePart.c: 38:     
      +                                                   EnumSevenSegment_Status_t a_Chip3 , EnumSevenSegment_Status_t a
      +                          _Chip4);SevenSegment_unportablePart.c: 39: {;SevenSegment_unportablePart.c: 41:     if(a
      +                          _Chip1 == SEVEN_SEGMENT_ENABLE_CHIP)
  5107  0421  082A               	movf	SevenSegment_SelectChip@a_Chip1,w
  5108  0422  1D03               	btfss	3,2
  5109  0423  2C25               	goto	u3341
  5110  0424  2C26               	goto	u3340
  5111  0425                     u3341:	
  5112  0425  2C40               	goto	l3129
  5113  0426                     u3340:	
  5114  0426                     l3127:	
  5115                           
  5116                           ;SevenSegment_unportablePart.c: 42:     {;SevenSegment_unportablePart.c: 44:         GPI
      +                          O_SetPinDirection(0u , 2u , 0u);
  5117  0426  3002               	movlw	2
  5118  0427  00A9               	movwf	??_SevenSegment_SelectChip
  5119  0428  0829               	movf	??_SevenSegment_SelectChip,w
  5120  0429  00A0               	movwf	GPIO_SetPinDirection@a_u8pin
  5121  042A  01A1               	clrf	GPIO_SetPinDirection@a_u8direction
  5122  042B  3000               	movlw	0
  5123  042C  120A  118A  203C  120A  118A  	fcall	_GPIO_SetPinDirection
  5124                           
  5125                           ;SevenSegment_unportablePart.c: 45:         GPIO_WriteOnPin(0u , 2u , 1u);
  5126  0431  3002               	movlw	2
  5127  0432  1283               	bcf	3,5	;RP0=0, select bank0
  5128  0433  1303               	bcf	3,6	;RP1=0, select bank0
  5129  0434  00A9               	movwf	??_SevenSegment_SelectChip
  5130  0435  0829               	movf	??_SevenSegment_SelectChip,w
  5131  0436  00A0               	movwf	GPIO_WriteOnPin@a_u8pin
  5132  0437  01A1               	clrf	GPIO_WriteOnPin@a_u8value
  5133  0438  0AA1               	incf	GPIO_WriteOnPin@a_u8value,f
  5134  0439  3000               	movlw	0
  5135  043A  120A  118A  2257  120A  118A  	fcall	_GPIO_WriteOnPin
  5136                           
  5137                           ;SevenSegment_unportablePart.c: 46:     }
  5138  043F  2C4B               	goto	l3131
  5139  0440                     l3129:	
  5140                           
  5141                           ;SevenSegment_unportablePart.c: 48:     {;SevenSegment_unportablePart.c: 50:         GPI
      +                          O_WriteOnPin(0u , 2u , 0u);
  5142  0440  3002               	movlw	2
  5143  0441  00A9               	movwf	??_SevenSegment_SelectChip
  5144  0442  0829               	movf	??_SevenSegment_SelectChip,w
  5145  0443  00A0               	movwf	GPIO_WriteOnPin@a_u8pin
  5146  0444  01A1               	clrf	GPIO_WriteOnPin@a_u8value
  5147  0445  3000               	movlw	0
  5148  0446  120A  118A  2257  120A  118A  	fcall	_GPIO_WriteOnPin
  5149  044B                     l3131:	
  5150                           
  5151                           ;SevenSegment_unportablePart.c: 53:     if(a_Chip2 == SEVEN_SEGMENT_ENABLE_CHIP)
  5152  044B  1283               	bcf	3,5	;RP0=0, select bank0
  5153  044C  1303               	bcf	3,6	;RP1=0, select bank0
  5154  044D  0826               	movf	SevenSegment_SelectChip@a_Chip2,w
  5155  044E  1D03               	btfss	3,2
  5156  044F  2C51               	goto	u3351
  5157  0450  2C52               	goto	u3350
  5158  0451                     u3351:	
  5159  0451  2C6C               	goto	l3135
  5160  0452                     u3350:	
  5161  0452                     l3133:	
  5162                           
  5163                           ;SevenSegment_unportablePart.c: 54:     {;SevenSegment_unportablePart.c: 56:         GPI
      +                          O_SetPinDirection(0u , 3u , 0u);
  5164  0452  3003               	movlw	3
  5165  0453  00A9               	movwf	??_SevenSegment_SelectChip
  5166  0454  0829               	movf	??_SevenSegment_SelectChip,w
  5167  0455  00A0               	movwf	GPIO_SetPinDirection@a_u8pin
  5168  0456  01A1               	clrf	GPIO_SetPinDirection@a_u8direction
  5169  0457  3000               	movlw	0
  5170  0458  120A  118A  203C  120A  118A  	fcall	_GPIO_SetPinDirection
  5171                           
  5172                           ;SevenSegment_unportablePart.c: 57:         GPIO_WriteOnPin(0u , 3u , 1u);
  5173  045D  3003               	movlw	3
  5174  045E  1283               	bcf	3,5	;RP0=0, select bank0
  5175  045F  1303               	bcf	3,6	;RP1=0, select bank0
  5176  0460  00A9               	movwf	??_SevenSegment_SelectChip
  5177  0461  0829               	movf	??_SevenSegment_SelectChip,w
  5178  0462  00A0               	movwf	GPIO_WriteOnPin@a_u8pin
  5179  0463  01A1               	clrf	GPIO_WriteOnPin@a_u8value
  5180  0464  0AA1               	incf	GPIO_WriteOnPin@a_u8value,f
  5181  0465  3000               	movlw	0
  5182  0466  120A  118A  2257  120A  118A  	fcall	_GPIO_WriteOnPin
  5183                           
  5184                           ;SevenSegment_unportablePart.c: 58:     }
  5185  046B  2C77               	goto	l3137
  5186  046C                     l3135:	
  5187                           
  5188                           ;SevenSegment_unportablePart.c: 60:     {;SevenSegment_unportablePart.c: 62:         GPI
      +                          O_WriteOnPin(0u , 3u , 0u);
  5189  046C  3003               	movlw	3
  5190  046D  00A9               	movwf	??_SevenSegment_SelectChip
  5191  046E  0829               	movf	??_SevenSegment_SelectChip,w
  5192  046F  00A0               	movwf	GPIO_WriteOnPin@a_u8pin
  5193  0470  01A1               	clrf	GPIO_WriteOnPin@a_u8value
  5194  0471  3000               	movlw	0
  5195  0472  120A  118A  2257  120A  118A  	fcall	_GPIO_WriteOnPin
  5196  0477                     l3137:	
  5197                           
  5198                           ;SevenSegment_unportablePart.c: 65:     if(a_Chip3 == SEVEN_SEGMENT_ENABLE_CHIP)
  5199  0477  1283               	bcf	3,5	;RP0=0, select bank0
  5200  0478  1303               	bcf	3,6	;RP1=0, select bank0
  5201  0479  0827               	movf	SevenSegment_SelectChip@a_Chip3,w
  5202  047A  1D03               	btfss	3,2
  5203  047B  2C7D               	goto	u3361
  5204  047C  2C7E               	goto	u3360
  5205  047D                     u3361:	
  5206  047D  2C98               	goto	l3141
  5207  047E                     u3360:	
  5208  047E                     l3139:	
  5209                           
  5210                           ;SevenSegment_unportablePart.c: 66:     {;SevenSegment_unportablePart.c: 68:         GPI
      +                          O_SetPinDirection(0u , 4u , 0u);
  5211  047E  3004               	movlw	4
  5212  047F  00A9               	movwf	??_SevenSegment_SelectChip
  5213  0480  0829               	movf	??_SevenSegment_SelectChip,w
  5214  0481  00A0               	movwf	GPIO_SetPinDirection@a_u8pin
  5215  0482  01A1               	clrf	GPIO_SetPinDirection@a_u8direction
  5216  0483  3000               	movlw	0
  5217  0484  120A  118A  203C  120A  118A  	fcall	_GPIO_SetPinDirection
  5218                           
  5219                           ;SevenSegment_unportablePart.c: 69:         GPIO_WriteOnPin(0u , 4u , 1u);
  5220  0489  3004               	movlw	4
  5221  048A  1283               	bcf	3,5	;RP0=0, select bank0
  5222  048B  1303               	bcf	3,6	;RP1=0, select bank0
  5223  048C  00A9               	movwf	??_SevenSegment_SelectChip
  5224  048D  0829               	movf	??_SevenSegment_SelectChip,w
  5225  048E  00A0               	movwf	GPIO_WriteOnPin@a_u8pin
  5226  048F  01A1               	clrf	GPIO_WriteOnPin@a_u8value
  5227  0490  0AA1               	incf	GPIO_WriteOnPin@a_u8value,f
  5228  0491  3000               	movlw	0
  5229  0492  120A  118A  2257  120A  118A  	fcall	_GPIO_WriteOnPin
  5230                           
  5231                           ;SevenSegment_unportablePart.c: 70:     }
  5232  0497  2CA3               	goto	l3143
  5233  0498                     l3141:	
  5234                           
  5235                           ;SevenSegment_unportablePart.c: 72:     {;SevenSegment_unportablePart.c: 74:         GPI
      +                          O_WriteOnPin(0u , 4u , 0u);
  5236  0498  3004               	movlw	4
  5237  0499  00A9               	movwf	??_SevenSegment_SelectChip
  5238  049A  0829               	movf	??_SevenSegment_SelectChip,w
  5239  049B  00A0               	movwf	GPIO_WriteOnPin@a_u8pin
  5240  049C  01A1               	clrf	GPIO_WriteOnPin@a_u8value
  5241  049D  3000               	movlw	0
  5242  049E  120A  118A  2257  120A  118A  	fcall	_GPIO_WriteOnPin
  5243  04A3                     l3143:	
  5244                           
  5245                           ;SevenSegment_unportablePart.c: 77:     if(a_Chip4 == SEVEN_SEGMENT_ENABLE_CHIP)
  5246  04A3  1283               	bcf	3,5	;RP0=0, select bank0
  5247  04A4  1303               	bcf	3,6	;RP1=0, select bank0
  5248  04A5  0828               	movf	SevenSegment_SelectChip@a_Chip4,w
  5249  04A6  1D03               	btfss	3,2
  5250  04A7  2CA9               	goto	u3371
  5251  04A8  2CAA               	goto	u3370
  5252  04A9                     u3371:	
  5253  04A9  2CC4               	goto	l3147
  5254  04AA                     u3370:	
  5255  04AA                     l3145:	
  5256                           
  5257                           ;SevenSegment_unportablePart.c: 78:     {;SevenSegment_unportablePart.c: 80:         GPI
      +                          O_SetPinDirection(0u , 5u , 0u);
  5258  04AA  3005               	movlw	5
  5259  04AB  00A9               	movwf	??_SevenSegment_SelectChip
  5260  04AC  0829               	movf	??_SevenSegment_SelectChip,w
  5261  04AD  00A0               	movwf	GPIO_SetPinDirection@a_u8pin
  5262  04AE  01A1               	clrf	GPIO_SetPinDirection@a_u8direction
  5263  04AF  3000               	movlw	0
  5264  04B0  120A  118A  203C  120A  118A  	fcall	_GPIO_SetPinDirection
  5265                           
  5266                           ;SevenSegment_unportablePart.c: 81:         GPIO_WriteOnPin(0u , 5u , 1u);
  5267  04B5  3005               	movlw	5
  5268  04B6  1283               	bcf	3,5	;RP0=0, select bank0
  5269  04B7  1303               	bcf	3,6	;RP1=0, select bank0
  5270  04B8  00A9               	movwf	??_SevenSegment_SelectChip
  5271  04B9  0829               	movf	??_SevenSegment_SelectChip,w
  5272  04BA  00A0               	movwf	GPIO_WriteOnPin@a_u8pin
  5273  04BB  01A1               	clrf	GPIO_WriteOnPin@a_u8value
  5274  04BC  0AA1               	incf	GPIO_WriteOnPin@a_u8value,f
  5275  04BD  3000               	movlw	0
  5276  04BE  120A  118A  2257  120A  118A  	fcall	_GPIO_WriteOnPin
  5277                           
  5278                           ;SevenSegment_unportablePart.c: 82:     }
  5279  04C3  2CCF               	goto	l504
  5280  04C4                     l3147:	
  5281                           
  5282                           ;SevenSegment_unportablePart.c: 84:     {;SevenSegment_unportablePart.c: 86:         GPI
      +                          O_WriteOnPin(0u , 5u , 0u);
  5283  04C4  3005               	movlw	5
  5284  04C5  00A9               	movwf	??_SevenSegment_SelectChip
  5285  04C6  0829               	movf	??_SevenSegment_SelectChip,w
  5286  04C7  00A0               	movwf	GPIO_WriteOnPin@a_u8pin
  5287  04C8  01A1               	clrf	GPIO_WriteOnPin@a_u8value
  5288  04C9  3000               	movlw	0
  5289  04CA  120A  118A  2257  120A  118A  	fcall	_GPIO_WriteOnPin
  5290  04CF                     l504:	
  5291  04CF  0008               	return
  5292  04D0                     __end_of_SevenSegment_SelectChip:	
  5293                           
  5294                           	psect	text33
  5295  0257                     __ptext33:	
  5296 ;; *************** function _GPIO_WriteOnPin *****************
  5297 ;; Defined at:
  5298 ;;		line 306 in file "GPIO.c"
  5299 ;; Parameters:    Size  Location     Type
  5300 ;;  a_u8port        1    wreg     unsigned char 
  5301 ;;  a_u8pin         1    0[BANK0 ] unsigned char 
  5302 ;;  a_u8value       1    1[BANK0 ] unsigned char 
  5303 ;; Auto vars:     Size  Location     Type
  5304 ;;  a_u8port        1    4[BANK0 ] unsigned char 
  5305 ;;  retVal          1    0        enum E10
  5306 ;; Return value:  Size  Location     Type
  5307 ;;                  1    wreg      enum E10
  5308 ;; Registers used:
  5309 ;;		wreg, fsr0l, fsr0h, status,2, status,0
  5310 ;; Tracked objects:
  5311 ;;		On entry : 0/0
  5312 ;;		On exit  : 0/0
  5313 ;;		Unchanged: 0/0
  5314 ;; Data sizes:     COMMON   BANK0   BANK1   BANK3   BANK2
  5315 ;;      Params:         0       2       0       0       0
  5316 ;;      Locals:         0       2       0       0       0
  5317 ;;      Temps:          0       2       0       0       0
  5318 ;;      Totals:         0       6       0       0       0
  5319 ;;Total ram usage:        6 bytes
  5320 ;; Hardware stack levels used:    1
  5321 ;; Hardware stack levels required when called:    3
  5322 ;; This function calls:
  5323 ;;		Nothing
  5324 ;; This function is called by:
  5325 ;;		_SevenSegment_Display
  5326 ;;		_SevenSegment_SelectChip
  5327 ;;		_Heater_turn_off
  5328 ;;		_Heater_heating_cooling_process
  5329 ;;		_Heater_check_if_change_state_to_setup_or_off
  5330 ;; This function uses a non-reentrant model
  5331 ;;
  5332                           
  5333                           
  5334                           ;psect for function _GPIO_WriteOnPin
  5335  0257                     _GPIO_WriteOnPin:	
  5336                           
  5337                           ;incstack = 0
  5338                           ; Regs used in _GPIO_WriteOnPin: [wreg-fsr0h+status,2+status,0]
  5339                           ;GPIO_WriteOnPin@a_u8port stored from wreg
  5340  0257  1283               	bcf	3,5	;RP0=0, select bank0
  5341  0258  1303               	bcf	3,6	;RP1=0, select bank0
  5342  0259  00A4               	movwf	GPIO_WriteOnPin@a_u8port
  5343  025A                     l2837:	
  5344                           
  5345                           ;GPIO.c: 311:     switch(a_u8port)
  5346  025A  2B3D               	goto	l2911
  5347  025B                     l2839:	
  5348                           
  5349                           ;GPIO.c: 315:             if(a_u8pin <= 5u)
  5350  025B  3006               	movlw	6
  5351  025C  0220               	subwf	GPIO_WriteOnPin@a_u8pin,w
  5352  025D  1803               	skipnc
  5353  025E  2A60               	goto	u2691
  5354  025F  2A61               	goto	u2690
  5355  0260                     u2691:	
  5356  0260  2A88               	goto	l205
  5357  0261                     u2690:	
  5358  0261                     l2841:	
  5359                           
  5360                           ;GPIO.c: 316:             {;GPIO.c: 317:                 if(a_u8value == 1u)
  5361  0261  0321               	decf	GPIO_WriteOnPin@a_u8value,w
  5362  0262  1D03               	btfss	3,2
  5363  0263  2A65               	goto	u2701
  5364  0264  2A66               	goto	u2700
  5365  0265                     u2701:	
  5366  0265  2A74               	goto	l2847
  5367  0266                     u2700:	
  5368  0266                     l2843:	
  5369                           
  5370                           ;GPIO.c: 318:                 {;GPIO.c: 319:                     *(volatile uint8*)0x05 
      +                          |= 1 << a_u8pin;
  5371  0266  3001               	movlw	1
  5372  0267  00A2               	movwf	??_GPIO_WriteOnPin
  5373  0268  0A20               	incf	GPIO_WriteOnPin@a_u8pin,w
  5374  0269  2A6C               	goto	u2714
  5375  026A                     u2715:	
  5376  026A  1003               	clrc
  5377  026B  0DA2               	rlf	??_GPIO_WriteOnPin,f
  5378  026C                     u2714:	
  5379  026C  3EFF               	addlw	-1
  5380  026D  1D03               	skipz
  5381  026E  2A6A               	goto	u2715
  5382  026F  0822               	movf	??_GPIO_WriteOnPin,w
  5383  0270  00A3               	movwf	??_GPIO_WriteOnPin+1
  5384  0271  0823               	movf	??_GPIO_WriteOnPin+1,w
  5385  0272  0485               	iorwf	5,f	;volatile
  5386  0273                     l2845:	
  5387                           
  5388                           ;GPIO.c: 321:                 }
  5389  0273  2B56               	goto	l238
  5390  0274                     l2847:	
  5391  0274  0821               	movf	GPIO_WriteOnPin@a_u8value,w
  5392  0275  1D03               	btfss	3,2
  5393  0276  2A78               	goto	u2721
  5394  0277  2A79               	goto	u2720
  5395  0278                     u2721:	
  5396  0278  2A88               	goto	l205
  5397  0279                     u2720:	
  5398  0279                     l2849:	
  5399                           
  5400                           ;GPIO.c: 323:                 {;GPIO.c: 324:                     *(volatile uint8*)0x05 
      +                          &= ~(1 << a_u8pin);
  5401  0279  3001               	movlw	1
  5402  027A  00A2               	movwf	??_GPIO_WriteOnPin
  5403  027B  0A20               	incf	GPIO_WriteOnPin@a_u8pin,w
  5404  027C  2A7F               	goto	u2734
  5405  027D                     u2735:	
  5406  027D  1003               	clrc
  5407  027E  0DA2               	rlf	??_GPIO_WriteOnPin,f
  5408  027F                     u2734:	
  5409  027F  3EFF               	addlw	-1
  5410  0280  1D03               	skipz
  5411  0281  2A7D               	goto	u2735
  5412  0282  0822               	movf	??_GPIO_WriteOnPin,w
  5413  0283  3AFF               	xorlw	255
  5414  0284  00A3               	movwf	??_GPIO_WriteOnPin+1
  5415  0285  0823               	movf	??_GPIO_WriteOnPin+1,w
  5416  0286  0585               	andwf	5,f	;volatile
  5417  0287  2A73               	goto	l2845
  5418  0288                     l205:	
  5419                           ;GPIO.c: 327:                 else
  5420                           
  5421  0288  2B56               	goto	l238
  5422  0289                     l2853:	
  5423                           
  5424                           ;GPIO.c: 341:             if(a_u8pin <= 7u)
  5425  0289  3008               	movlw	8
  5426  028A  0220               	subwf	GPIO_WriteOnPin@a_u8pin,w
  5427  028B  1803               	skipnc
  5428  028C  2A8E               	goto	u2741
  5429  028D  2A8F               	goto	u2740
  5430  028E                     u2741:	
  5431  028E  2A88               	goto	l205
  5432  028F                     u2740:	
  5433  028F                     l2855:	
  5434                           
  5435                           ;GPIO.c: 342:             {;GPIO.c: 343:                 if(a_u8value == 1u)
  5436  028F  0321               	decf	GPIO_WriteOnPin@a_u8value,w
  5437  0290  1D03               	btfss	3,2
  5438  0291  2A93               	goto	u2751
  5439  0292  2A94               	goto	u2750
  5440  0293                     u2751:	
  5441  0293  2AA2               	goto	l2861
  5442  0294                     u2750:	
  5443  0294                     l2857:	
  5444                           
  5445                           ;GPIO.c: 344:                 {;GPIO.c: 345:                     *(volatile uint8*)0x06 
      +                          |= 1 << a_u8pin;
  5446  0294  3001               	movlw	1
  5447  0295  00A2               	movwf	??_GPIO_WriteOnPin
  5448  0296  0A20               	incf	GPIO_WriteOnPin@a_u8pin,w
  5449  0297  2A9A               	goto	u2764
  5450  0298                     u2765:	
  5451  0298  1003               	clrc
  5452  0299  0DA2               	rlf	??_GPIO_WriteOnPin,f
  5453  029A                     u2764:	
  5454  029A  3EFF               	addlw	-1
  5455  029B  1D03               	skipz
  5456  029C  2A98               	goto	u2765
  5457  029D  0822               	movf	??_GPIO_WriteOnPin,w
  5458  029E  00A3               	movwf	??_GPIO_WriteOnPin+1
  5459  029F  0823               	movf	??_GPIO_WriteOnPin+1,w
  5460  02A0  0486               	iorwf	6,f	;volatile
  5461  02A1  2A73               	goto	l2845
  5462  02A2                     l2861:	
  5463  02A2  0821               	movf	GPIO_WriteOnPin@a_u8value,w
  5464  02A3  1D03               	btfss	3,2
  5465  02A4  2AA6               	goto	u2771
  5466  02A5  2AA7               	goto	u2770
  5467  02A6                     u2771:	
  5468  02A6  2A88               	goto	l205
  5469  02A7                     u2770:	
  5470  02A7                     l2863:	
  5471                           
  5472                           ;GPIO.c: 349:                 {;GPIO.c: 350:                     *(volatile uint8*)0x06 
      +                          &= ~(1 << a_u8pin);
  5473  02A7  3001               	movlw	1
  5474  02A8  00A2               	movwf	??_GPIO_WriteOnPin
  5475  02A9  0A20               	incf	GPIO_WriteOnPin@a_u8pin,w
  5476  02AA  2AAD               	goto	u2784
  5477  02AB                     u2785:	
  5478  02AB  1003               	clrc
  5479  02AC  0DA2               	rlf	??_GPIO_WriteOnPin,f
  5480  02AD                     u2784:	
  5481  02AD  3EFF               	addlw	-1
  5482  02AE  1D03               	skipz
  5483  02AF  2AAB               	goto	u2785
  5484  02B0  0822               	movf	??_GPIO_WriteOnPin,w
  5485  02B1  3AFF               	xorlw	255
  5486  02B2  00A3               	movwf	??_GPIO_WriteOnPin+1
  5487  02B3  0823               	movf	??_GPIO_WriteOnPin+1,w
  5488  02B4  0586               	andwf	6,f	;volatile
  5489  02B5  2A73               	goto	l2845
  5490  02B6                     l2867:	
  5491                           
  5492                           ;GPIO.c: 367:             if(a_u8pin <= 7u)
  5493  02B6  3008               	movlw	8
  5494  02B7  0220               	subwf	GPIO_WriteOnPin@a_u8pin,w
  5495  02B8  1803               	skipnc
  5496  02B9  2ABB               	goto	u2791
  5497  02BA  2ABC               	goto	u2790
  5498  02BB                     u2791:	
  5499  02BB  2A88               	goto	l205
  5500  02BC                     u2790:	
  5501  02BC                     l2869:	
  5502                           
  5503                           ;GPIO.c: 368:             {;GPIO.c: 369:                 if(a_u8value == 1u)
  5504  02BC  0321               	decf	GPIO_WriteOnPin@a_u8value,w
  5505  02BD  1D03               	btfss	3,2
  5506  02BE  2AC0               	goto	u2801
  5507  02BF  2AC1               	goto	u2800
  5508  02C0                     u2801:	
  5509  02C0  2ACF               	goto	l2875
  5510  02C1                     u2800:	
  5511  02C1                     l2871:	
  5512                           
  5513                           ;GPIO.c: 370:                 {;GPIO.c: 371:                     *(volatile uint8*)0x07 
      +                          |= 1 << a_u8pin;
  5514  02C1  3001               	movlw	1
  5515  02C2  00A2               	movwf	??_GPIO_WriteOnPin
  5516  02C3  0A20               	incf	GPIO_WriteOnPin@a_u8pin,w
  5517  02C4  2AC7               	goto	u2814
  5518  02C5                     u2815:	
  5519  02C5  1003               	clrc
  5520  02C6  0DA2               	rlf	??_GPIO_WriteOnPin,f
  5521  02C7                     u2814:	
  5522  02C7  3EFF               	addlw	-1
  5523  02C8  1D03               	skipz
  5524  02C9  2AC5               	goto	u2815
  5525  02CA  0822               	movf	??_GPIO_WriteOnPin,w
  5526  02CB  00A3               	movwf	??_GPIO_WriteOnPin+1
  5527  02CC  0823               	movf	??_GPIO_WriteOnPin+1,w
  5528  02CD  0487               	iorwf	7,f	;volatile
  5529  02CE  2A73               	goto	l2845
  5530  02CF                     l2875:	
  5531  02CF  0821               	movf	GPIO_WriteOnPin@a_u8value,w
  5532  02D0  1D03               	btfss	3,2
  5533  02D1  2AD3               	goto	u2821
  5534  02D2  2AD4               	goto	u2820
  5535  02D3                     u2821:	
  5536  02D3  2A88               	goto	l205
  5537  02D4                     u2820:	
  5538  02D4                     l2877:	
  5539                           
  5540                           ;GPIO.c: 375:                 {;GPIO.c: 376:                     *(volatile uint8*)0x07 
      +                          &= ~(1 << a_u8pin);
  5541  02D4  3001               	movlw	1
  5542  02D5  00A2               	movwf	??_GPIO_WriteOnPin
  5543  02D6  0A20               	incf	GPIO_WriteOnPin@a_u8pin,w
  5544  02D7  2ADA               	goto	u2834
  5545  02D8                     u2835:	
  5546  02D8  1003               	clrc
  5547  02D9  0DA2               	rlf	??_GPIO_WriteOnPin,f
  5548  02DA                     u2834:	
  5549  02DA  3EFF               	addlw	-1
  5550  02DB  1D03               	skipz
  5551  02DC  2AD8               	goto	u2835
  5552  02DD  0822               	movf	??_GPIO_WriteOnPin,w
  5553  02DE  3AFF               	xorlw	255
  5554  02DF  00A3               	movwf	??_GPIO_WriteOnPin+1
  5555  02E0  0823               	movf	??_GPIO_WriteOnPin+1,w
  5556  02E1  0587               	andwf	7,f	;volatile
  5557  02E2  2A73               	goto	l2845
  5558  02E3                     l2881:	
  5559                           
  5560                           ;GPIO.c: 393:             if(a_u8pin <= 7u)
  5561  02E3  3008               	movlw	8
  5562  02E4  0220               	subwf	GPIO_WriteOnPin@a_u8pin,w
  5563  02E5  1803               	skipnc
  5564  02E6  2AE8               	goto	u2841
  5565  02E7  2AE9               	goto	u2840
  5566  02E8                     u2841:	
  5567  02E8  2A88               	goto	l205
  5568  02E9                     u2840:	
  5569  02E9                     l2883:	
  5570                           
  5571                           ;GPIO.c: 394:             {;GPIO.c: 395:                 if(a_u8value == 1u)
  5572  02E9  0321               	decf	GPIO_WriteOnPin@a_u8value,w
  5573  02EA  1D03               	btfss	3,2
  5574  02EB  2AED               	goto	u2851
  5575  02EC  2AEE               	goto	u2850
  5576  02ED                     u2851:	
  5577  02ED  2AFC               	goto	l2889
  5578  02EE                     u2850:	
  5579  02EE                     l2885:	
  5580                           
  5581                           ;GPIO.c: 396:                 {;GPIO.c: 397:                     *(volatile uint8*)0x08 
      +                          |= 1 << a_u8pin;
  5582  02EE  3001               	movlw	1
  5583  02EF  00A2               	movwf	??_GPIO_WriteOnPin
  5584  02F0  0A20               	incf	GPIO_WriteOnPin@a_u8pin,w
  5585  02F1  2AF4               	goto	u2864
  5586  02F2                     u2865:	
  5587  02F2  1003               	clrc
  5588  02F3  0DA2               	rlf	??_GPIO_WriteOnPin,f
  5589  02F4                     u2864:	
  5590  02F4  3EFF               	addlw	-1
  5591  02F5  1D03               	skipz
  5592  02F6  2AF2               	goto	u2865
  5593  02F7  0822               	movf	??_GPIO_WriteOnPin,w
  5594  02F8  00A3               	movwf	??_GPIO_WriteOnPin+1
  5595  02F9  0823               	movf	??_GPIO_WriteOnPin+1,w
  5596  02FA  0488               	iorwf	8,f	;volatile
  5597  02FB  2A73               	goto	l2845
  5598  02FC                     l2889:	
  5599  02FC  0821               	movf	GPIO_WriteOnPin@a_u8value,w
  5600  02FD  1D03               	btfss	3,2
  5601  02FE  2B00               	goto	u2871
  5602  02FF  2B01               	goto	u2870
  5603  0300                     u2871:	
  5604  0300  2A88               	goto	l205
  5605  0301                     u2870:	
  5606  0301                     l2891:	
  5607                           
  5608                           ;GPIO.c: 401:                 {;GPIO.c: 402:                     *(volatile uint8*)0x08 
      +                          &= ~(1 << a_u8pin);
  5609  0301  3001               	movlw	1
  5610  0302  00A2               	movwf	??_GPIO_WriteOnPin
  5611  0303  0A20               	incf	GPIO_WriteOnPin@a_u8pin,w
  5612  0304  2B07               	goto	u2884
  5613  0305                     u2885:	
  5614  0305  1003               	clrc
  5615  0306  0DA2               	rlf	??_GPIO_WriteOnPin,f
  5616  0307                     u2884:	
  5617  0307  3EFF               	addlw	-1
  5618  0308  1D03               	skipz
  5619  0309  2B05               	goto	u2885
  5620  030A  0822               	movf	??_GPIO_WriteOnPin,w
  5621  030B  3AFF               	xorlw	255
  5622  030C  00A3               	movwf	??_GPIO_WriteOnPin+1
  5623  030D  0823               	movf	??_GPIO_WriteOnPin+1,w
  5624  030E  0588               	andwf	8,f	;volatile
  5625  030F  2A73               	goto	l2845
  5626  0310                     l2895:	
  5627                           
  5628                           ;GPIO.c: 419:             if(a_u8pin < 3u)
  5629  0310  3003               	movlw	3
  5630  0311  0220               	subwf	GPIO_WriteOnPin@a_u8pin,w
  5631  0312  1803               	skipnc
  5632  0313  2B15               	goto	u2891
  5633  0314  2B16               	goto	u2890
  5634  0315                     u2891:	
  5635  0315  2A88               	goto	l205
  5636  0316                     u2890:	
  5637  0316                     l2897:	
  5638                           
  5639                           ;GPIO.c: 420:             {;GPIO.c: 421:                 if(a_u8value == 1u)
  5640  0316  0321               	decf	GPIO_WriteOnPin@a_u8value,w
  5641  0317  1D03               	btfss	3,2
  5642  0318  2B1A               	goto	u2901
  5643  0319  2B1B               	goto	u2900
  5644  031A                     u2901:	
  5645  031A  2B29               	goto	l2903
  5646  031B                     u2900:	
  5647  031B                     l2899:	
  5648                           
  5649                           ;GPIO.c: 422:                 {;GPIO.c: 423:                     *(volatile uint8*)0x09 
      +                          |= 1 << a_u8pin;
  5650  031B  3001               	movlw	1
  5651  031C  00A2               	movwf	??_GPIO_WriteOnPin
  5652  031D  0A20               	incf	GPIO_WriteOnPin@a_u8pin,w
  5653  031E  2B21               	goto	u2914
  5654  031F                     u2915:	
  5655  031F  1003               	clrc
  5656  0320  0DA2               	rlf	??_GPIO_WriteOnPin,f
  5657  0321                     u2914:	
  5658  0321  3EFF               	addlw	-1
  5659  0322  1D03               	skipz
  5660  0323  2B1F               	goto	u2915
  5661  0324  0822               	movf	??_GPIO_WriteOnPin,w
  5662  0325  00A3               	movwf	??_GPIO_WriteOnPin+1
  5663  0326  0823               	movf	??_GPIO_WriteOnPin+1,w
  5664  0327  0489               	iorwf	9,f	;volatile
  5665  0328  2A73               	goto	l2845
  5666  0329                     l2903:	
  5667  0329  0821               	movf	GPIO_WriteOnPin@a_u8value,w
  5668  032A  1D03               	btfss	3,2
  5669  032B  2B2D               	goto	u2921
  5670  032C  2B2E               	goto	u2920
  5671  032D                     u2921:	
  5672  032D  2A88               	goto	l205
  5673  032E                     u2920:	
  5674  032E                     l2905:	
  5675                           
  5676                           ;GPIO.c: 427:                 {;GPIO.c: 428:                     *(volatile uint8*)0x09 
      +                          &= ~(1 << a_u8pin);
  5677  032E  3001               	movlw	1
  5678  032F  00A2               	movwf	??_GPIO_WriteOnPin
  5679  0330  0A20               	incf	GPIO_WriteOnPin@a_u8pin,w
  5680  0331  2B34               	goto	u2934
  5681  0332                     u2935:	
  5682  0332  1003               	clrc
  5683  0333  0DA2               	rlf	??_GPIO_WriteOnPin,f
  5684  0334                     u2934:	
  5685  0334  3EFF               	addlw	-1
  5686  0335  1D03               	skipz
  5687  0336  2B32               	goto	u2935
  5688  0337  0822               	movf	??_GPIO_WriteOnPin,w
  5689  0338  3AFF               	xorlw	255
  5690  0339  00A3               	movwf	??_GPIO_WriteOnPin+1
  5691  033A  0823               	movf	??_GPIO_WriteOnPin+1,w
  5692  033B  0589               	andwf	9,f	;volatile
  5693  033C  2A73               	goto	l2845
  5694  033D                     l2911:	
  5695  033D  0824               	movf	GPIO_WriteOnPin@a_u8port,w
  5696  033E  00A2               	movwf	??_GPIO_WriteOnPin
  5697  033F  01A3               	clrf	??_GPIO_WriteOnPin+1
  5698                           
  5699                           ; Switch on 2 bytes has been partitioned into a top level switch of size 1, and 1 sub-sw
      +                          itches
  5700                           ; Switch size 1, requested type "simple"
  5701                           ; Number of cases is 1, Range of values is 0 to 0
  5702                           ; switch strategies available:
  5703                           ; Name         Instructions Cycles
  5704                           ; simple_byte            4     3 (average)
  5705                           ; direct_byte           11     8 (fixed)
  5706                           ; jumptable            260     6 (fixed)
  5707                           ;	Chosen strategy is simple_byte
  5708  0340  0823               	movf	??_GPIO_WriteOnPin+1,w
  5709  0341  3A00               	xorlw	0	; case 0
  5710  0342  1903               	skipnz
  5711  0343  2B45               	goto	l4077
  5712  0344  2A88               	goto	l205
  5713  0345                     l4077:	
  5714                           
  5715                           ; Switch size 1, requested type "simple"
  5716                           ; Number of cases is 5, Range of values is 0 to 4
  5717                           ; switch strategies available:
  5718                           ; Name         Instructions Cycles
  5719                           ; simple_byte           16     9 (average)
  5720                           ; direct_byte           23     8 (fixed)
  5721                           ; jumptable            260     6 (fixed)
  5722                           ;	Chosen strategy is simple_byte
  5723  0345  0822               	movf	??_GPIO_WriteOnPin,w
  5724  0346  3A00               	xorlw	0	; case 0
  5725  0347  1903               	skipnz
  5726  0348  2A5B               	goto	l2839
  5727  0349  3A01               	xorlw	1	; case 1
  5728  034A  1903               	skipnz
  5729  034B  2A89               	goto	l2853
  5730  034C  3A03               	xorlw	3	; case 2
  5731  034D  1903               	skipnz
  5732  034E  2AB6               	goto	l2867
  5733  034F  3A01               	xorlw	1	; case 3
  5734  0350  1903               	skipnz
  5735  0351  2AE3               	goto	l2881
  5736  0352  3A07               	xorlw	7	; case 4
  5737  0353  1903               	skipnz
  5738  0354  2B10               	goto	l2895
  5739  0355  2A88               	goto	l205
  5740  0356                     l238:	
  5741  0356  0008               	return
  5742  0357                     __end_of_GPIO_WriteOnPin:	
  5743                           
  5744                           	psect	text34
  5745  0357                     __ptext34:	
  5746 ;; *************** function _Heater_Initialization *****************
  5747 ;; Defined at:
  5748 ;;		line 276 in file "heater.c"
  5749 ;; Parameters:    Size  Location     Type
  5750 ;;		None
  5751 ;; Auto vars:     Size  Location     Type
  5752 ;;		None
  5753 ;; Return value:  Size  Location     Type
  5754 ;;                  1    wreg      void 
  5755 ;; Registers used:
  5756 ;;		wreg, fsr0l, fsr0h, status,2, status,0, pclath, cstack
  5757 ;; Tracked objects:
  5758 ;;		On entry : 0/0
  5759 ;;		On exit  : 0/0
  5760 ;;		Unchanged: 0/0
  5761 ;; Data sizes:     COMMON   BANK0   BANK1   BANK3   BANK2
  5762 ;;      Params:         0       0       0       0       0
  5763 ;;      Locals:         0       0       0       0       0
  5764 ;;      Temps:          0       1       0       0       0
  5765 ;;      Totals:         0       1       0       0       0
  5766 ;;Total ram usage:        1 bytes
  5767 ;; Hardware stack levels used:    1
  5768 ;; Hardware stack levels required when called:    6
  5769 ;; This function calls:
  5770 ;;		_ADC_Initialization
  5771 ;;		_ADC_Select_prescaler
  5772 ;;		_EEPROM_Initialization
  5773 ;;		_External_interrupt_enable
  5774 ;;		_External_interrupt_select_falling_edge
  5775 ;;		_GPIO_Enable_Pull_Up_On_PortB
  5776 ;;		_GPIO_SetPinDirection
  5777 ;;		_Global_interrupt_enable
  5778 ;;		_SevenSegment_Initialization
  5779 ;;		_Timer1_Initialization
  5780 ;;		_Timer1_enable_overflow_interrupt
  5781 ;;		_Timer1_set_callback_function
  5782 ;; This function is called by:
  5783 ;;		_main
  5784 ;; This function uses a non-reentrant model
  5785 ;;
  5786                           
  5787                           
  5788                           ;psect for function _Heater_Initialization
  5789  0357                     _Heater_Initialization:	
  5790  0357                     l3559:	
  5791                           ;incstack = 0
  5792                           ; Regs used in _Heater_Initialization: [wreg-fsr0h+status,2+status,0+pclath+cstack]
  5793                           
  5794                           
  5795                           ;heater.c: 279:     EEPROM_Initialization();
  5796  0357  120A  158A  206C  120A  118A  	fcall	_EEPROM_Initialization
  5797  035C                     l3561:	
  5798                           
  5799                           ;heater.c: 281:     SevenSegment_Initialization();
  5800  035C  120A  158A  2062  120A  118A  	fcall	_SevenSegment_Initialization
  5801  0361                     l3563:	
  5802                           
  5803                           ;heater.c: 283:     GPIO_Enable_Pull_Up_On_PortB();
  5804  0361  120A  158A  2059  120A  118A  	fcall	_GPIO_Enable_Pull_Up_On_PortB
  5805                           
  5806                           ;heater.c: 285:     GPIO_SetPinDirection(2u , 2u , 0u);
  5807  0366  3002               	movlw	2
  5808  0367  1283               	bcf	3,5	;RP0=0, select bank0
  5809  0368  1303               	bcf	3,6	;RP1=0, select bank0
  5810  0369  00B6               	movwf	??_Heater_Initialization
  5811  036A  0836               	movf	??_Heater_Initialization,w
  5812  036B  00A0               	movwf	GPIO_SetPinDirection@a_u8pin
  5813  036C  01A1               	clrf	GPIO_SetPinDirection@a_u8direction
  5814  036D  3002               	movlw	2
  5815  036E  120A  118A  203C  120A  118A  	fcall	_GPIO_SetPinDirection
  5816                           
  5817                           ;heater.c: 287:     ADC_Initialization(ADC_CHANNEL_2 , ADC_V_REF_DEFAULT_VALUE , ADC_V_R
      +                          EF_DEFAULT_VALUE);
  5818  0373  1283               	bcf	3,5	;RP0=0, select bank0
  5819  0374  1303               	bcf	3,6	;RP1=0, select bank0
  5820  0375  01A0               	clrf	ADC_Initialization@a_ADC_Vref_high_t
  5821  0376  0AA0               	incf	ADC_Initialization@a_ADC_Vref_high_t,f
  5822  0377  01A1               	clrf	ADC_Initialization@a_ADC_Vref_low_t
  5823  0378  0AA1               	incf	ADC_Initialization@a_ADC_Vref_low_t,f
  5824  0379  3002               	movlw	2
  5825  037A  120A  118A  2150  120A  118A  	fcall	_ADC_Initialization
  5826                           
  5827                           ;heater.c: 288:     ADC_Select_prescaler(ADC_PRESCALER_16);
  5828  037F  3005               	movlw	5
  5829  0380  120A  118A  277B  120A  118A  	fcall	_ADC_Select_prescaler
  5830                           
  5831                           ;heater.c: 290:     GPIO_SetPinDirection(2u , 5u , 0u);
  5832  0385  3005               	movlw	5
  5833  0386  1283               	bcf	3,5	;RP0=0, select bank0
  5834  0387  1303               	bcf	3,6	;RP1=0, select bank0
  5835  0388  00B6               	movwf	??_Heater_Initialization
  5836  0389  0836               	movf	??_Heater_Initialization,w
  5837  038A  00A0               	movwf	GPIO_SetPinDirection@a_u8pin
  5838  038B  01A1               	clrf	GPIO_SetPinDirection@a_u8direction
  5839  038C  3002               	movlw	2
  5840  038D  120A  118A  203C  120A  118A  	fcall	_GPIO_SetPinDirection
  5841                           
  5842                           ;heater.c: 292:     GPIO_SetPinDirection(1u , 3u , 0u);
  5843  0392  3003               	movlw	3
  5844  0393  1283               	bcf	3,5	;RP0=0, select bank0
  5845  0394  1303               	bcf	3,6	;RP1=0, select bank0
  5846  0395  00B6               	movwf	??_Heater_Initialization
  5847  0396  0836               	movf	??_Heater_Initialization,w
  5848  0397  00A0               	movwf	GPIO_SetPinDirection@a_u8pin
  5849  0398  01A1               	clrf	GPIO_SetPinDirection@a_u8direction
  5850  0399  3001               	movlw	1
  5851  039A  120A  118A  203C  120A  118A  	fcall	_GPIO_SetPinDirection
  5852                           
  5853                           ;heater.c: 293:     GPIO_SetPinDirection(1u , 4u , 0u);
  5854  039F  3004               	movlw	4
  5855  03A0  1283               	bcf	3,5	;RP0=0, select bank0
  5856  03A1  1303               	bcf	3,6	;RP1=0, select bank0
  5857  03A2  00B6               	movwf	??_Heater_Initialization
  5858  03A3  0836               	movf	??_Heater_Initialization,w
  5859  03A4  00A0               	movwf	GPIO_SetPinDirection@a_u8pin
  5860  03A5  01A1               	clrf	GPIO_SetPinDirection@a_u8direction
  5861  03A6  3001               	movlw	1
  5862  03A7  120A  118A  203C  120A  118A  	fcall	_GPIO_SetPinDirection
  5863                           
  5864                           ;heater.c: 294:     GPIO_SetPinDirection(1u , 5u , 0u);
  5865  03AC  3005               	movlw	5
  5866  03AD  1283               	bcf	3,5	;RP0=0, select bank0
  5867  03AE  1303               	bcf	3,6	;RP1=0, select bank0
  5868  03AF  00B6               	movwf	??_Heater_Initialization
  5869  03B0  0836               	movf	??_Heater_Initialization,w
  5870  03B1  00A0               	movwf	GPIO_SetPinDirection@a_u8pin
  5871  03B2  01A1               	clrf	GPIO_SetPinDirection@a_u8direction
  5872  03B3  3001               	movlw	1
  5873  03B4  120A  118A  203C  120A  118A  	fcall	_GPIO_SetPinDirection
  5874                           
  5875                           ;heater.c: 295:     GPIO_SetPinDirection(1u , 6u , 0u);
  5876  03B9  3006               	movlw	6
  5877  03BA  1283               	bcf	3,5	;RP0=0, select bank0
  5878  03BB  1303               	bcf	3,6	;RP1=0, select bank0
  5879  03BC  00B6               	movwf	??_Heater_Initialization
  5880  03BD  0836               	movf	??_Heater_Initialization,w
  5881  03BE  00A0               	movwf	GPIO_SetPinDirection@a_u8pin
  5882  03BF  01A1               	clrf	GPIO_SetPinDirection@a_u8direction
  5883  03C0  3001               	movlw	1
  5884  03C1  120A  118A  203C  120A  118A  	fcall	_GPIO_SetPinDirection
  5885                           
  5886                           ;heater.c: 296:     GPIO_SetPinDirection(1u , 7u , 0u);
  5887  03C6  3007               	movlw	7
  5888  03C7  1283               	bcf	3,5	;RP0=0, select bank0
  5889  03C8  1303               	bcf	3,6	;RP1=0, select bank0
  5890  03C9  00B6               	movwf	??_Heater_Initialization
  5891  03CA  0836               	movf	??_Heater_Initialization,w
  5892  03CB  00A0               	movwf	GPIO_SetPinDirection@a_u8pin
  5893  03CC  01A1               	clrf	GPIO_SetPinDirection@a_u8direction
  5894  03CD  3001               	movlw	1
  5895  03CE  120A  118A  203C  120A  118A  	fcall	_GPIO_SetPinDirection
  5896                           
  5897                           ;heater.c: 298:     GPIO_SetPinDirection(1u , 2u , 1u);
  5898  03D3  3002               	movlw	2
  5899  03D4  1283               	bcf	3,5	;RP0=0, select bank0
  5900  03D5  1303               	bcf	3,6	;RP1=0, select bank0
  5901  03D6  00B6               	movwf	??_Heater_Initialization
  5902  03D7  0836               	movf	??_Heater_Initialization,w
  5903  03D8  00A0               	movwf	GPIO_SetPinDirection@a_u8pin
  5904  03D9  01A1               	clrf	GPIO_SetPinDirection@a_u8direction
  5905  03DA  0AA1               	incf	GPIO_SetPinDirection@a_u8direction,f
  5906  03DB  3001               	movlw	1
  5907  03DC  120A  118A  203C  120A  118A  	fcall	_GPIO_SetPinDirection
  5908                           
  5909                           ;heater.c: 300:     GPIO_SetPinDirection(1u , 1u , 1u);
  5910  03E1  1283               	bcf	3,5	;RP0=0, select bank0
  5911  03E2  1303               	bcf	3,6	;RP1=0, select bank0
  5912  03E3  01A0               	clrf	GPIO_SetPinDirection@a_u8pin
  5913  03E4  0AA0               	incf	GPIO_SetPinDirection@a_u8pin,f
  5914  03E5  01A1               	clrf	GPIO_SetPinDirection@a_u8direction
  5915  03E6  0AA1               	incf	GPIO_SetPinDirection@a_u8direction,f
  5916  03E7  3001               	movlw	1
  5917  03E8  120A  118A  203C  120A  118A  	fcall	_GPIO_SetPinDirection
  5918                           
  5919                           ;heater.c: 302:     GPIO_SetPinDirection(1u , 0u , 1u);
  5920  03ED  1283               	bcf	3,5	;RP0=0, select bank0
  5921  03EE  1303               	bcf	3,6	;RP1=0, select bank0
  5922  03EF  01A0               	clrf	GPIO_SetPinDirection@a_u8pin
  5923  03F0  01A1               	clrf	GPIO_SetPinDirection@a_u8direction
  5924  03F1  0AA1               	incf	GPIO_SetPinDirection@a_u8direction,f
  5925  03F2  3001               	movlw	1
  5926  03F3  120A  118A  203C  120A  118A  	fcall	_GPIO_SetPinDirection
  5927  03F8                     l3565:	
  5928                           
  5929                           ;heater.c: 304:     Global_interrupt_enable();
  5930  03F8  120A  158A  202D  120A  118A  	fcall	_Global_interrupt_enable
  5931  03FD                     l3567:	
  5932                           
  5933                           ;heater.c: 306:     Timer1_enable_overflow_interrupt();
  5934  03FD  120A  158A  2031  120A  118A  	fcall	_Timer1_enable_overflow_interrupt
  5935  0402                     l3569:	
  5936                           
  5937                           ;heater.c: 308:     Timer1_set_callback_function(TIMER1_ISR);
  5938  0402  3001               	movlw	(low (fp__TIMER1_ISR-i1fpbase))& (0+255)
  5939  0403  120A  158A  2040  120A  118A  	fcall	_Timer1_set_callback_function
  5940  0408                     l3571:	
  5941                           
  5942                           ;heater.c: 310:     Timer1_config_t.timer_prescaler_t = TIMER1_PRESCALER_4;
  5943  0408  3002               	movlw	2
  5944  0409  1283               	bcf	3,5	;RP0=0, select bank0
  5945  040A  1303               	bcf	3,6	;RP1=0, select bank0
  5946  040B  00B6               	movwf	??_Heater_Initialization
  5947  040C  0836               	movf	??_Heater_Initialization,w
  5948  040D  00DA               	movwf	_Timer1_config_t
  5949  040E                     l3573:	
  5950                           
  5951                           ;heater.c: 312:     Timer1_Initialization();
  5952  040E  120A  158A  249D  120A  118A  	fcall	_Timer1_Initialization
  5953  0413                     l3575:	
  5954                           
  5955                           ;heater.c: 314:     External_interrupt_select_falling_edge();
  5956  0413  120A  158A  2050  120A  118A  	fcall	_External_interrupt_select_falling_edge
  5957  0418                     l3577:	
  5958                           
  5959                           ;heater.c: 316:     External_interrupt_enable();
  5960  0418  120A  158A  202B  120A  118A  	fcall	_External_interrupt_enable
  5961  041D                     l653:	
  5962  041D  0008               	return
  5963  041E                     __end_of_Heater_Initialization:	
  5964                           
  5965                           	psect	text35
  5966  0840                     __ptext35:	
  5967 ;; *************** function _Timer1_set_callback_function *****************
  5968 ;; Defined at:
  5969 ;;		line 129 in file "interrupt.c"
  5970 ;; Parameters:    Size  Location     Type
  5971 ;;  a_function_p    1    wreg     PTR FTN()void 
  5972 ;;		 -> TIMER1_ISR(1), 
  5973 ;; Auto vars:     Size  Location     Type
  5974 ;;  a_function_p    1    1[BANK0 ] PTR FTN()void 
  5975 ;;		 -> TIMER1_ISR(1), 
  5976 ;; Return value:  Size  Location     Type
  5977 ;;                  1    wreg      void 
  5978 ;; Registers used:
  5979 ;;		wreg
  5980 ;; Tracked objects:
  5981 ;;		On entry : 0/0
  5982 ;;		On exit  : 0/0
  5983 ;;		Unchanged: 0/0
  5984 ;; Data sizes:     COMMON   BANK0   BANK1   BANK3   BANK2
  5985 ;;      Params:         0       0       0       0       0
  5986 ;;      Locals:         0       1       0       0       0
  5987 ;;      Temps:          0       1       0       0       0
  5988 ;;      Totals:         0       2       0       0       0
  5989 ;;Total ram usage:        2 bytes
  5990 ;; Hardware stack levels used:    1
  5991 ;; Hardware stack levels required when called:    3
  5992 ;; This function calls:
  5993 ;;		Nothing
  5994 ;; This function is called by:
  5995 ;;		_Heater_Initialization
  5996 ;; This function uses a non-reentrant model
  5997 ;;
  5998                           
  5999                           
  6000                           ;psect for function _Timer1_set_callback_function
  6001  0840                     _Timer1_set_callback_function:	
  6002                           
  6003                           ;incstack = 0
  6004                           ; Regs used in _Timer1_set_callback_function: [wreg]
  6005                           ;Timer1_set_callback_function@a_function_ptr stored from wreg
  6006  0840  1283               	bcf	3,5	;RP0=0, select bank0
  6007  0841  1303               	bcf	3,6	;RP1=0, select bank0
  6008  0842  00A1               	movwf	Timer1_set_callback_function@a_function_ptr
  6009  0843                     l3399:	
  6010                           
  6011                           ;interrupt.c: 129: void Timer1_set_callback_function(void(*a_function_ptr)(void));interr
      +                          upt.c: 130: {;interrupt.c: 132:     timer1_callback_ptr = a_function_ptr;
  6012  0843  0821               	movf	Timer1_set_callback_function@a_function_ptr,w
  6013  0844  00A0               	movwf	??_Timer1_set_callback_function
  6014  0845  0820               	movf	??_Timer1_set_callback_function,w
  6015  0846  00FC               	movwf	_timer1_callback_ptr
  6016  0847                     l395:	
  6017  0847  0008               	return
  6018  0848                     __end_of_Timer1_set_callback_function:	
  6019                           
  6020                           	psect	text36
  6021  0831                     __ptext36:	
  6022 ;; *************** function _Timer1_enable_overflow_interrupt *****************
  6023 ;; Defined at:
  6024 ;;		line 97 in file "interrupt.c"
  6025 ;; Parameters:    Size  Location     Type
  6026 ;;		None
  6027 ;; Auto vars:     Size  Location     Type
  6028 ;;		None
  6029 ;; Return value:  Size  Location     Type
  6030 ;;                  1    wreg      void 
  6031 ;; Registers used:
  6032 ;;		None
  6033 ;; Tracked objects:
  6034 ;;		On entry : 0/0
  6035 ;;		On exit  : 0/0
  6036 ;;		Unchanged: 0/0
  6037 ;; Data sizes:     COMMON   BANK0   BANK1   BANK3   BANK2
  6038 ;;      Params:         0       0       0       0       0
  6039 ;;      Locals:         0       0       0       0       0
  6040 ;;      Temps:          0       0       0       0       0
  6041 ;;      Totals:         0       0       0       0       0
  6042 ;;Total ram usage:        0 bytes
  6043 ;; Hardware stack levels used:    1
  6044 ;; Hardware stack levels required when called:    3
  6045 ;; This function calls:
  6046 ;;		Nothing
  6047 ;; This function is called by:
  6048 ;;		_Heater_Initialization
  6049 ;; This function uses a non-reentrant model
  6050 ;;
  6051                           
  6052                           
  6053                           ;psect for function _Timer1_enable_overflow_interrupt
  6054  0831                     _Timer1_enable_overflow_interrupt:	
  6055  0831                     l3397:	
  6056                           ;incstack = 0
  6057                           ; Regs used in _Timer1_enable_overflow_interrupt: []
  6058                           
  6059                           
  6060                           ;interrupt.c: 99:     *(volatile uint8*)0x8C |= 1 << 0u;
  6061  0831  1683               	bsf	3,5	;RP0=1, select bank1
  6062  0832  1303               	bcf	3,6	;RP1=0, select bank1
  6063  0833  140C               	bsf	12,0	;volatile
  6064  0834                     l389:	
  6065  0834  0008               	return
  6066  0835                     __end_of_Timer1_enable_overflow_interrupt:	
  6067                           
  6068                           	psect	text37
  6069  0C9D                     __ptext37:	
  6070 ;; *************** function _Timer1_Initialization *****************
  6071 ;; Defined at:
  6072 ;;		line 123 in file "timers.c"
  6073 ;; Parameters:    Size  Location     Type
  6074 ;;		None
  6075 ;; Auto vars:     Size  Location     Type
  6076 ;;		None
  6077 ;; Return value:  Size  Location     Type
  6078 ;;                  1    wreg      void 
  6079 ;; Registers used:
  6080 ;;		wreg, fsr0l, fsr0h, status,2, status,0
  6081 ;; Tracked objects:
  6082 ;;		On entry : 0/0
  6083 ;;		On exit  : 0/0
  6084 ;;		Unchanged: 0/0
  6085 ;; Data sizes:     COMMON   BANK0   BANK1   BANK3   BANK2
  6086 ;;      Params:         0       0       0       0       0
  6087 ;;      Locals:         0       0       0       0       0
  6088 ;;      Temps:          0       2       0       0       0
  6089 ;;      Totals:         0       2       0       0       0
  6090 ;;Total ram usage:        2 bytes
  6091 ;; Hardware stack levels used:    1
  6092 ;; Hardware stack levels required when called:    3
  6093 ;; This function calls:
  6094 ;;		Nothing
  6095 ;; This function is called by:
  6096 ;;		_Heater_Initialization
  6097 ;; This function uses a non-reentrant model
  6098 ;;
  6099                           
  6100                           
  6101                           ;psect for function _Timer1_Initialization
  6102  0C9D                     _Timer1_Initialization:	
  6103  0C9D                     l3445:	
  6104                           ;incstack = 0
  6105                           ; Regs used in _Timer1_Initialization: [wreg-fsr0h+status,2+status,0]
  6106                           
  6107                           
  6108                           ;timers.c: 126:     if(Timer1_config_t.timer_clock_source_t == TIMER1_INTERNAL_CLOCK)
  6109  0C9D  1283               	bcf	3,5	;RP0=0, select bank0
  6110  0C9E  1303               	bcf	3,6	;RP1=0, select bank0
  6111  0C9F  085B               	movf	_Timer1_config_t+1,w
  6112  0CA0  1D03               	btfss	3,2
  6113  0CA1  2CA3               	goto	u3931
  6114  0CA2  2CA4               	goto	u3930
  6115  0CA3                     u3931:	
  6116  0CA3  2CA9               	goto	l511
  6117  0CA4                     u3930:	
  6118  0CA4                     l3447:	
  6119                           
  6120                           ;timers.c: 127:     {;timers.c: 128:         *(volatile uint8*)0x10 &= ~(1 << 1u);
  6121  0CA4  30FD               	movlw	253
  6122  0CA5  00A0               	movwf	??_Timer1_Initialization
  6123  0CA6  0820               	movf	??_Timer1_Initialization,w
  6124  0CA7  0590               	andwf	16,f	;volatile
  6125                           
  6126                           ;timers.c: 129:     }
  6127  0CA8  2CAA               	goto	l3449
  6128  0CA9                     l511:	
  6129                           ;timers.c: 130:     else
  6130                           
  6131                           
  6132                           ;timers.c: 131:     {;timers.c: 132:         *(volatile uint8*)0x10 |= 1 << 1u;
  6133  0CA9  1490               	bsf	16,1	;volatile
  6134  0CAA                     l3449:	
  6135                           
  6136                           ;timers.c: 135:     if(Timer1_config_t.timer_clock_source_t != TIMER1_INTERNAL_CLOCK)
  6137  0CAA  085B               	movf	_Timer1_config_t+1,w
  6138  0CAB  1903               	btfsc	3,2
  6139  0CAC  2CAE               	goto	u3941
  6140  0CAD  2CAF               	goto	u3940
  6141  0CAE                     u3941:	
  6142  0CAE  2CD9               	goto	l3463
  6143  0CAF                     u3940:	
  6144  0CAF                     l3451:	
  6145                           
  6146                           ;timers.c: 136:     {;timers.c: 137:         *(volatile uint8*)0x10 &= 0xFB;
  6147  0CAF  30FB               	movlw	251
  6148  0CB0  00A0               	movwf	??_Timer1_Initialization
  6149  0CB1  0820               	movf	??_Timer1_Initialization,w
  6150  0CB2  0590               	andwf	16,f	;volatile
  6151                           
  6152                           ;timers.c: 138:         *(volatile uint8*)0x10 |= Timer1_config_t.timer_sync_with_extern
      +                          al_clock << 2;
  6153  0CB3  085C               	movf	_Timer1_config_t+2,w
  6154  0CB4  00A0               	movwf	??_Timer1_Initialization
  6155  0CB5  3001               	movlw	1
  6156  0CB6                     u3955:	
  6157  0CB6  1003               	clrc
  6158  0CB7  0DA0               	rlf	??_Timer1_Initialization,f
  6159  0CB8  3EFF               	addlw	-1
  6160  0CB9  1D03               	skipz
  6161  0CBA  2CB6               	goto	u3955
  6162  0CBB  1003               	clrc
  6163  0CBC  0D20               	rlf	??_Timer1_Initialization,w
  6164  0CBD  00A1               	movwf	??_Timer1_Initialization+1
  6165  0CBE  0821               	movf	??_Timer1_Initialization+1,w
  6166  0CBF  0490               	iorwf	16,f	;volatile
  6167                           
  6168                           ;timers.c: 139:     }
  6169  0CC0  2CD9               	goto	l3463
  6170  0CC1                     l3453:	
  6171                           
  6172                           ;timers.c: 148:             *(volatile uint8*)0x10 &= ~(1 << 5u);
  6173  0CC1  30DF               	movlw	223
  6174  0CC2  00A0               	movwf	??_Timer1_Initialization
  6175  0CC3  0820               	movf	??_Timer1_Initialization,w
  6176  0CC4  0590               	andwf	16,f	;volatile
  6177                           
  6178                           ;timers.c: 149:             *(volatile uint8*)0x10 &= ~(1 << 4u);
  6179  0CC5  30EF               	movlw	239
  6180  0CC6  00A0               	movwf	??_Timer1_Initialization
  6181  0CC7  0820               	movf	??_Timer1_Initialization,w
  6182  0CC8  0590               	andwf	16,f	;volatile
  6183                           
  6184                           ;timers.c: 150:             break;
  6185  0CC9  2CEF               	goto	l522
  6186  0CCA                     l3455:	
  6187                           
  6188                           ;timers.c: 152:             *(volatile uint8*)0x10 &= ~(1 << 5u);
  6189  0CCA  30DF               	movlw	223
  6190  0CCB  00A0               	movwf	??_Timer1_Initialization
  6191  0CCC  0820               	movf	??_Timer1_Initialization,w
  6192  0CCD  0590               	andwf	16,f	;volatile
  6193  0CCE                     l3457:	
  6194                           
  6195                           ;timers.c: 153:             *(volatile uint8*)0x10 |= 1 << 4u;
  6196  0CCE  1610               	bsf	16,4	;volatile
  6197                           
  6198                           ;timers.c: 154:             break;
  6199  0CCF  2CEF               	goto	l522
  6200  0CD0                     l519:	
  6201                           ;timers.c: 155:         case TIMER1_PRESCALER_4:
  6202                           
  6203                           
  6204                           ;timers.c: 156:             *(volatile uint8*)0x10 |= 1 << 5u;
  6205  0CD0  1690               	bsf	16,5	;volatile
  6206  0CD1                     l3459:	
  6207                           
  6208                           ;timers.c: 157:             *(volatile uint8*)0x10 &= ~(1 << 4u);
  6209  0CD1  30EF               	movlw	239
  6210  0CD2  00A0               	movwf	??_Timer1_Initialization
  6211  0CD3  0820               	movf	??_Timer1_Initialization,w
  6212  0CD4  0590               	andwf	16,f	;volatile
  6213                           
  6214                           ;timers.c: 158:             break;
  6215  0CD5  2CEF               	goto	l522
  6216  0CD6                     l520:	
  6217                           ;timers.c: 159:         case TIMER1_PRESCALER_8:
  6218                           
  6219                           
  6220                           ;timers.c: 160:             *(volatile uint8*)0x10 |= 1 << 5u;
  6221  0CD6  1690               	bsf	16,5	;volatile
  6222                           
  6223                           ;timers.c: 161:             *(volatile uint8*)0x10 |= 1 << 4u;
  6224  0CD7  1610               	bsf	16,4	;volatile
  6225                           
  6226                           ;timers.c: 162:             break;
  6227  0CD8  2CEF               	goto	l522
  6228  0CD9                     l3463:	
  6229  0CD9  085A               	movf	_Timer1_config_t,w
  6230  0CDA  00A0               	movwf	??_Timer1_Initialization
  6231  0CDB  01A1               	clrf	??_Timer1_Initialization+1
  6232                           
  6233                           ; Switch on 2 bytes has been partitioned into a top level switch of size 1, and 1 sub-sw
      +                          itches
  6234                           ; Switch size 1, requested type "simple"
  6235                           ; Number of cases is 1, Range of values is 0 to 0
  6236                           ; switch strategies available:
  6237                           ; Name         Instructions Cycles
  6238                           ; simple_byte            4     3 (average)
  6239                           ; direct_byte           11     8 (fixed)
  6240                           ; jumptable            260     6 (fixed)
  6241                           ;	Chosen strategy is simple_byte
  6242  0CDC  0821               	movf	??_Timer1_Initialization+1,w
  6243  0CDD  3A00               	xorlw	0	; case 0
  6244  0CDE  1903               	skipnz
  6245  0CDF  2CE1               	goto	l4079
  6246  0CE0  2CEF               	goto	l522
  6247  0CE1                     l4079:	
  6248                           
  6249                           ; Switch size 1, requested type "simple"
  6250                           ; Number of cases is 4, Range of values is 0 to 3
  6251                           ; switch strategies available:
  6252                           ; Name         Instructions Cycles
  6253                           ; simple_byte           13     7 (average)
  6254                           ; direct_byte           20     8 (fixed)
  6255                           ; jumptable            260     6 (fixed)
  6256                           ;	Chosen strategy is simple_byte
  6257  0CE1  0820               	movf	??_Timer1_Initialization,w
  6258  0CE2  3A00               	xorlw	0	; case 0
  6259  0CE3  1903               	skipnz
  6260  0CE4  2CC1               	goto	l3453
  6261  0CE5  3A01               	xorlw	1	; case 1
  6262  0CE6  1903               	skipnz
  6263  0CE7  2CCA               	goto	l3455
  6264  0CE8  3A03               	xorlw	3	; case 2
  6265  0CE9  1903               	skipnz
  6266  0CEA  2CD0               	goto	l519
  6267  0CEB  3A01               	xorlw	1	; case 3
  6268  0CEC  1903               	skipnz
  6269  0CED  2CD6               	goto	l520
  6270  0CEE  2CEF               	goto	l522
  6271  0CEF                     l522:	
  6272  0CEF  0008               	return
  6273  0CF0                     __end_of_Timer1_Initialization:	
  6274                           
  6275                           	psect	text38
  6276  0862                     __ptext38:	
  6277 ;; *************** function _SevenSegment_Initialization *****************
  6278 ;; Defined at:
  6279 ;;		line 34 in file "SevenSegment.c"
  6280 ;; Parameters:    Size  Location     Type
  6281 ;;		None
  6282 ;; Auto vars:     Size  Location     Type
  6283 ;;		None
  6284 ;; Return value:  Size  Location     Type
  6285 ;;                  1    wreg      void 
  6286 ;; Registers used:
  6287 ;;		wreg, fsr0l, fsr0h, status,2, status,0, pclath, cstack
  6288 ;; Tracked objects:
  6289 ;;		On entry : 0/0
  6290 ;;		On exit  : 0/0
  6291 ;;		Unchanged: 0/0
  6292 ;; Data sizes:     COMMON   BANK0   BANK1   BANK3   BANK2
  6293 ;;      Params:         0       0       0       0       0
  6294 ;;      Locals:         0       0       0       0       0
  6295 ;;      Temps:          0       0       0       0       0
  6296 ;;      Totals:         0       0       0       0       0
  6297 ;;Total ram usage:        0 bytes
  6298 ;; Hardware stack levels used:    1
  6299 ;; Hardware stack levels required when called:    4
  6300 ;; This function calls:
  6301 ;;		_GPIO_SetPortDirection
  6302 ;; This function is called by:
  6303 ;;		_Heater_Initialization
  6304 ;; This function uses a non-reentrant model
  6305 ;;
  6306                           
  6307                           
  6308                           ;psect for function _SevenSegment_Initialization
  6309  0862                     _SevenSegment_Initialization:	
  6310  0862                     l3443:	
  6311                           ;incstack = 0
  6312                           ; Regs used in _SevenSegment_Initialization: [wreg-fsr0h+status,2+status,0+pclath+cstack
      +                          ]
  6313                           
  6314                           
  6315                           ;SevenSegment.c: 36:     GPIO_SetPortDirection(3u , 0u);
  6316  0862  1283               	bcf	3,5	;RP0=0, select bank0
  6317  0863  1303               	bcf	3,6	;RP1=0, select bank0
  6318  0864  01A0               	clrf	GPIO_SetPortDirection@a_u8direction
  6319  0865  3003               	movlw	3
  6320  0866  120A  118A  2581  120A  158A  	fcall	_GPIO_SetPortDirection
  6321  086B                     l482:	
  6322  086B  0008               	return
  6323  086C                     __end_of_SevenSegment_Initialization:	
  6324                           
  6325                           	psect	text39
  6326  0581                     __ptext39:	
  6327 ;; *************** function _GPIO_SetPortDirection *****************
  6328 ;; Defined at:
  6329 ;;		line 193 in file "GPIO.c"
  6330 ;; Parameters:    Size  Location     Type
  6331 ;;  a_u8port        1    wreg     unsigned char 
  6332 ;;  a_u8directio    1    0[BANK0 ] unsigned char 
  6333 ;; Auto vars:     Size  Location     Type
  6334 ;;  a_u8port        1    3[BANK0 ] unsigned char 
  6335 ;;  retVal          1    0        enum E10
  6336 ;; Return value:  Size  Location     Type
  6337 ;;                  1    wreg      enum E10
  6338 ;; Registers used:
  6339 ;;		wreg, fsr0l, fsr0h, status,2, status,0
  6340 ;; Tracked objects:
  6341 ;;		On entry : 0/0
  6342 ;;		On exit  : 0/0
  6343 ;;		Unchanged: 0/0
  6344 ;; Data sizes:     COMMON   BANK0   BANK1   BANK3   BANK2
  6345 ;;      Params:         0       1       0       0       0
  6346 ;;      Locals:         0       2       0       0       0
  6347 ;;      Temps:          0       2       0       0       0
  6348 ;;      Totals:         0       5       0       0       0
  6349 ;;Total ram usage:        5 bytes
  6350 ;; Hardware stack levels used:    1
  6351 ;; Hardware stack levels required when called:    3
  6352 ;; This function calls:
  6353 ;;		Nothing
  6354 ;; This function is called by:
  6355 ;;		_SevenSegment_Initialization
  6356 ;; This function uses a non-reentrant model
  6357 ;;
  6358                           
  6359                           
  6360                           ;psect for function _GPIO_SetPortDirection
  6361  0581                     _GPIO_SetPortDirection:	
  6362                           
  6363                           ;incstack = 0
  6364                           ; Regs used in _GPIO_SetPortDirection: [wreg-fsr0h+status,2+status,0]
  6365                           ;GPIO_SetPortDirection@a_u8port stored from wreg
  6366  0581  1283               	bcf	3,5	;RP0=0, select bank0
  6367  0582  1303               	bcf	3,6	;RP1=0, select bank0
  6368  0583  00A3               	movwf	GPIO_SetPortDirection@a_u8port
  6369  0584                     l3023:	
  6370                           
  6371                           ;GPIO.c: 198:     switch(a_u8port)
  6372  0584  2DF2               	goto	l3081
  6373  0585                     l3025:	
  6374                           
  6375                           ;GPIO.c: 201:             if(a_u8direction == 1u)
  6376  0585  0320               	decf	GPIO_SetPortDirection@a_u8direction,w
  6377  0586  1D03               	btfss	3,2
  6378  0587  2D89               	goto	u3171
  6379  0588  2D8A               	goto	u3170
  6380  0589                     u3171:	
  6381  0589  2D91               	goto	l3031
  6382  058A                     u3170:	
  6383  058A                     l3027:	
  6384                           
  6385                           ;GPIO.c: 202:             {;GPIO.c: 203:                 *(volatile uint8*)0x85 |= 0x3F;
  6386  058A  303F               	movlw	63
  6387  058B  00A1               	movwf	??_GPIO_SetPortDirection
  6388  058C  0821               	movf	??_GPIO_SetPortDirection,w
  6389  058D  1683               	bsf	3,5	;RP0=1, select bank1
  6390  058E  1303               	bcf	3,6	;RP1=0, select bank1
  6391  058F  0485               	iorwf	5,f	;volatile
  6392  0590                     l3029:	
  6393                           
  6394                           ;GPIO.c: 205:             }
  6395  0590  2E0B               	goto	l197
  6396  0591                     l3031:	
  6397  0591  0820               	movf	GPIO_SetPortDirection@a_u8direction,w
  6398  0592  1D03               	btfss	3,2
  6399  0593  2D95               	goto	u3181
  6400  0594  2D96               	goto	u3180
  6401  0595                     u3181:	
  6402  0595  2D9D               	goto	l173
  6403  0596                     u3180:	
  6404  0596                     l3033:	
  6405                           
  6406                           ;GPIO.c: 207:             {;GPIO.c: 208:                 *(volatile uint8*)0x85 &= 0xC0;
  6407  0596  30C0               	movlw	192
  6408  0597  00A1               	movwf	??_GPIO_SetPortDirection
  6409  0598  0821               	movf	??_GPIO_SetPortDirection,w
  6410  0599  1683               	bsf	3,5	;RP0=1, select bank1
  6411  059A  1303               	bcf	3,6	;RP1=0, select bank1
  6412  059B  0585               	andwf	5,f	;volatile
  6413  059C  2D90               	goto	l3029
  6414  059D                     l173:	
  6415                           ;GPIO.c: 211:             else
  6416                           
  6417  059D  2E0B               	goto	l197
  6418  059E                     l3037:	
  6419                           
  6420                           ;GPIO.c: 218:             if(a_u8direction == 1u)
  6421  059E  0320               	decf	GPIO_SetPortDirection@a_u8direction,w
  6422  059F  1D03               	btfss	3,2
  6423  05A0  2DA2               	goto	u3191
  6424  05A1  2DA3               	goto	u3190
  6425  05A2                     u3191:	
  6426  05A2  2DAA               	goto	l3043
  6427  05A3                     u3190:	
  6428  05A3                     l3039:	
  6429                           
  6430                           ;GPIO.c: 219:             {;GPIO.c: 220:                 *(volatile uint8*)0x86 |= 0xFF;
  6431  05A3  30FF               	movlw	255
  6432  05A4  00A1               	movwf	??_GPIO_SetPortDirection
  6433  05A5  0821               	movf	??_GPIO_SetPortDirection,w
  6434  05A6  1683               	bsf	3,5	;RP0=1, select bank1
  6435  05A7  1303               	bcf	3,6	;RP1=0, select bank1
  6436  05A8  0086               	movwf	6	;volatile
  6437  05A9  2D90               	goto	l3029
  6438  05AA                     l3043:	
  6439  05AA  0820               	movf	GPIO_SetPortDirection@a_u8direction,w
  6440  05AB  1D03               	btfss	3,2
  6441  05AC  2DAE               	goto	u3201
  6442  05AD  2DAF               	goto	u3200
  6443  05AE                     u3201:	
  6444  05AE  2D9D               	goto	l173
  6445  05AF                     u3200:	
  6446  05AF                     l3045:	
  6447                           
  6448                           ;GPIO.c: 224:             {;GPIO.c: 225:                 *(volatile uint8*)0x85 &= 0x00;
  6449  05AF  1683               	bsf	3,5	;RP0=1, select bank1
  6450  05B0  1303               	bcf	3,6	;RP1=0, select bank1
  6451  05B1  0185               	clrf	5	;volatile
  6452                           
  6453                           ;GPIO.c: 227:             }
  6454  05B2  2E0B               	goto	l197
  6455  05B3                     l3047:	
  6456                           
  6457                           ;GPIO.c: 235:             if(a_u8direction == 1u)
  6458  05B3  0320               	decf	GPIO_SetPortDirection@a_u8direction,w
  6459  05B4  1D03               	btfss	3,2
  6460  05B5  2DB7               	goto	u3211
  6461  05B6  2DB8               	goto	u3210
  6462  05B7                     u3211:	
  6463  05B7  2DBF               	goto	l3053
  6464  05B8                     u3210:	
  6465  05B8                     l3049:	
  6466                           
  6467                           ;GPIO.c: 236:             {;GPIO.c: 237:                 *(volatile uint8*)0x87 |= 0xFF;
  6468  05B8  30FF               	movlw	255
  6469  05B9  00A1               	movwf	??_GPIO_SetPortDirection
  6470  05BA  0821               	movf	??_GPIO_SetPortDirection,w
  6471  05BB  1683               	bsf	3,5	;RP0=1, select bank1
  6472  05BC  1303               	bcf	3,6	;RP1=0, select bank1
  6473  05BD  0087               	movwf	7	;volatile
  6474  05BE  2D90               	goto	l3029
  6475  05BF                     l3053:	
  6476  05BF  0820               	movf	GPIO_SetPortDirection@a_u8direction,w
  6477  05C0  1D03               	btfss	3,2
  6478  05C1  2DC3               	goto	u3221
  6479  05C2  2DC4               	goto	u3220
  6480  05C3                     u3221:	
  6481  05C3  2D9D               	goto	l173
  6482  05C4                     u3220:	
  6483  05C4                     l3055:	
  6484                           
  6485                           ;GPIO.c: 241:             {;GPIO.c: 242:                 *(volatile uint8*)0x87 &= 0x00;
  6486  05C4  1683               	bsf	3,5	;RP0=1, select bank1
  6487  05C5  1303               	bcf	3,6	;RP1=0, select bank1
  6488  05C6  0187               	clrf	7	;volatile
  6489                           
  6490                           ;GPIO.c: 244:             }
  6491  05C7  2E0B               	goto	l197
  6492  05C8                     l3057:	
  6493                           
  6494                           ;GPIO.c: 252:             if(a_u8direction == 1u)
  6495  05C8  0320               	decf	GPIO_SetPortDirection@a_u8direction,w
  6496  05C9  1D03               	btfss	3,2
  6497  05CA  2DCC               	goto	u3231
  6498  05CB  2DCD               	goto	u3230
  6499  05CC                     u3231:	
  6500  05CC  2DD4               	goto	l3063
  6501  05CD                     u3230:	
  6502  05CD                     l3059:	
  6503                           
  6504                           ;GPIO.c: 253:             {;GPIO.c: 254:                 *(volatile uint8*)0x88 |= 0xFF;
  6505  05CD  30FF               	movlw	255
  6506  05CE  00A1               	movwf	??_GPIO_SetPortDirection
  6507  05CF  0821               	movf	??_GPIO_SetPortDirection,w
  6508  05D0  1683               	bsf	3,5	;RP0=1, select bank1
  6509  05D1  1303               	bcf	3,6	;RP1=0, select bank1
  6510  05D2  0088               	movwf	8	;volatile
  6511  05D3  2D90               	goto	l3029
  6512  05D4                     l3063:	
  6513  05D4  0820               	movf	GPIO_SetPortDirection@a_u8direction,w
  6514  05D5  1D03               	btfss	3,2
  6515  05D6  2DD8               	goto	u3241
  6516  05D7  2DD9               	goto	u3240
  6517  05D8                     u3241:	
  6518  05D8  2D9D               	goto	l173
  6519  05D9                     u3240:	
  6520  05D9                     l3065:	
  6521                           
  6522                           ;GPIO.c: 258:             {;GPIO.c: 259:                 *(volatile uint8*)0x88 &= 0x00;
  6523  05D9  1683               	bsf	3,5	;RP0=1, select bank1
  6524  05DA  1303               	bcf	3,6	;RP1=0, select bank1
  6525  05DB  0188               	clrf	8	;volatile
  6526                           
  6527                           ;GPIO.c: 261:             }
  6528  05DC  2E0B               	goto	l197
  6529  05DD                     l3067:	
  6530                           
  6531                           ;GPIO.c: 269:             if(a_u8direction == 1u)
  6532  05DD  0320               	decf	GPIO_SetPortDirection@a_u8direction,w
  6533  05DE  1D03               	btfss	3,2
  6534  05DF  2DE1               	goto	u3251
  6535  05E0  2DE2               	goto	u3250
  6536  05E1                     u3251:	
  6537  05E1  2DE6               	goto	l3073
  6538  05E2                     u3250:	
  6539  05E2                     l3069:	
  6540                           
  6541                           ;GPIO.c: 270:             {;GPIO.c: 271:                 *(volatile uint8*)0x89 |= 0x08;
  6542  05E2  1683               	bsf	3,5	;RP0=1, select bank1
  6543  05E3  1303               	bcf	3,6	;RP1=0, select bank1
  6544  05E4  1589               	bsf	9,3	;volatile
  6545  05E5  2D90               	goto	l3029
  6546  05E6                     l3073:	
  6547  05E6  0820               	movf	GPIO_SetPortDirection@a_u8direction,w
  6548  05E7  1D03               	btfss	3,2
  6549  05E8  2DEA               	goto	u3261
  6550  05E9  2DEB               	goto	u3260
  6551  05EA                     u3261:	
  6552  05EA  2D9D               	goto	l173
  6553  05EB                     u3260:	
  6554  05EB                     l3075:	
  6555                           
  6556                           ;GPIO.c: 275:             {;GPIO.c: 276:                 *(volatile uint8*)0x89 &= 0xF8;
  6557  05EB  30F8               	movlw	248
  6558  05EC  00A1               	movwf	??_GPIO_SetPortDirection
  6559  05ED  0821               	movf	??_GPIO_SetPortDirection,w
  6560  05EE  1683               	bsf	3,5	;RP0=1, select bank1
  6561  05EF  1303               	bcf	3,6	;RP1=0, select bank1
  6562  05F0  0589               	andwf	9,f	;volatile
  6563  05F1  2D90               	goto	l3029
  6564  05F2                     l3081:	
  6565  05F2  0823               	movf	GPIO_SetPortDirection@a_u8port,w
  6566  05F3  00A1               	movwf	??_GPIO_SetPortDirection
  6567  05F4  01A2               	clrf	??_GPIO_SetPortDirection+1
  6568                           
  6569                           ; Switch on 2 bytes has been partitioned into a top level switch of size 1, and 1 sub-sw
      +                          itches
  6570                           ; Switch size 1, requested type "simple"
  6571                           ; Number of cases is 1, Range of values is 0 to 0
  6572                           ; switch strategies available:
  6573                           ; Name         Instructions Cycles
  6574                           ; simple_byte            4     3 (average)
  6575                           ; direct_byte           11     8 (fixed)
  6576                           ; jumptable            260     6 (fixed)
  6577                           ;	Chosen strategy is simple_byte
  6578  05F5  0822               	movf	??_GPIO_SetPortDirection+1,w
  6579  05F6  3A00               	xorlw	0	; case 0
  6580  05F7  1903               	skipnz
  6581  05F8  2DFA               	goto	l4081
  6582  05F9  2D9D               	goto	l173
  6583  05FA                     l4081:	
  6584                           
  6585                           ; Switch size 1, requested type "simple"
  6586                           ; Number of cases is 5, Range of values is 0 to 4
  6587                           ; switch strategies available:
  6588                           ; Name         Instructions Cycles
  6589                           ; simple_byte           16     9 (average)
  6590                           ; direct_byte           23     8 (fixed)
  6591                           ; jumptable            260     6 (fixed)
  6592                           ;	Chosen strategy is simple_byte
  6593  05FA  0821               	movf	??_GPIO_SetPortDirection,w
  6594  05FB  3A00               	xorlw	0	; case 0
  6595  05FC  1903               	skipnz
  6596  05FD  2D85               	goto	l3025
  6597  05FE  3A01               	xorlw	1	; case 1
  6598  05FF  1903               	skipnz
  6599  0600  2D9E               	goto	l3037
  6600  0601  3A03               	xorlw	3	; case 2
  6601  0602  1903               	skipnz
  6602  0603  2DB3               	goto	l3047
  6603  0604  3A01               	xorlw	1	; case 3
  6604  0605  1903               	skipnz
  6605  0606  2DC8               	goto	l3057
  6606  0607  3A07               	xorlw	7	; case 4
  6607  0608  1903               	skipnz
  6608  0609  2DDD               	goto	l3067
  6609  060A  2D9D               	goto	l173
  6610  060B                     l197:	
  6611  060B  0008               	return
  6612  060C                     __end_of_GPIO_SetPortDirection:	
  6613                           
  6614                           	psect	text40
  6615  082D                     __ptext40:	
  6616 ;; *************** function _Global_interrupt_enable *****************
  6617 ;; Defined at:
  6618 ;;		line 916 in file "interrupt.c"
  6619 ;; Parameters:    Size  Location     Type
  6620 ;;		None
  6621 ;; Auto vars:     Size  Location     Type
  6622 ;;		None
  6623 ;; Return value:  Size  Location     Type
  6624 ;;                  1    wreg      void 
  6625 ;; Registers used:
  6626 ;;		None
  6627 ;; Tracked objects:
  6628 ;;		On entry : 0/0
  6629 ;;		On exit  : 0/0
  6630 ;;		Unchanged: 0/0
  6631 ;; Data sizes:     COMMON   BANK0   BANK1   BANK3   BANK2
  6632 ;;      Params:         0       0       0       0       0
  6633 ;;      Locals:         0       0       0       0       0
  6634 ;;      Temps:          0       0       0       0       0
  6635 ;;      Totals:         0       0       0       0       0
  6636 ;;Total ram usage:        0 bytes
  6637 ;; Hardware stack levels used:    1
  6638 ;; Hardware stack levels required when called:    3
  6639 ;; This function calls:
  6640 ;;		Nothing
  6641 ;; This function is called by:
  6642 ;;		_Heater_Initialization
  6643 ;; This function uses a non-reentrant model
  6644 ;;
  6645                           
  6646                           
  6647                           ;psect for function _Global_interrupt_enable
  6648  082D                     _Global_interrupt_enable:	
  6649  082D                     l3405:	
  6650                           ;incstack = 0
  6651                           ; Regs used in _Global_interrupt_enable: []
  6652                           
  6653                           
  6654                           ;interrupt.c: 918:     *(volatile uint8*)0x0B |= 1 << 7u;
  6655  082D  178B               	bsf	11,7	;volatile
  6656  082E                     l415:	
  6657  082E  0008               	return
  6658  082F                     __end_of_Global_interrupt_enable:	
  6659                           
  6660                           	psect	text41
  6661  003C                     __ptext41:	
  6662 ;; *************** function _GPIO_SetPinDirection *****************
  6663 ;; Defined at:
  6664 ;;		line 36 in file "GPIO.c"
  6665 ;; Parameters:    Size  Location     Type
  6666 ;;  a_u8port        1    wreg     unsigned char 
  6667 ;;  a_u8pin         1    0[BANK0 ] unsigned char 
  6668 ;;  a_u8directio    1    1[BANK0 ] unsigned char 
  6669 ;; Auto vars:     Size  Location     Type
  6670 ;;  a_u8port        1    4[BANK0 ] unsigned char 
  6671 ;;  retVal          1    0        enum E10
  6672 ;; Return value:  Size  Location     Type
  6673 ;;                  1    wreg      enum E10
  6674 ;; Registers used:
  6675 ;;		wreg, fsr0l, fsr0h, status,2, status,0
  6676 ;; Tracked objects:
  6677 ;;		On entry : 0/0
  6678 ;;		On exit  : 0/0
  6679 ;;		Unchanged: 0/0
  6680 ;; Data sizes:     COMMON   BANK0   BANK1   BANK3   BANK2
  6681 ;;      Params:         0       2       0       0       0
  6682 ;;      Locals:         0       2       0       0       0
  6683 ;;      Temps:          0       2       0       0       0
  6684 ;;      Totals:         0       6       0       0       0
  6685 ;;Total ram usage:        6 bytes
  6686 ;; Hardware stack levels used:    1
  6687 ;; Hardware stack levels required when called:    3
  6688 ;; This function calls:
  6689 ;;		Nothing
  6690 ;; This function is called by:
  6691 ;;		_SevenSegment_SelectChip
  6692 ;;		_Heater_Initialization
  6693 ;; This function uses a non-reentrant model
  6694 ;;
  6695                           
  6696                           
  6697                           ;psect for function _GPIO_SetPinDirection
  6698  003C                     _GPIO_SetPinDirection:	
  6699                           
  6700                           ;incstack = 0
  6701                           ; Regs used in _GPIO_SetPinDirection: [wreg-fsr0h+status,2+status,0]
  6702                           ;GPIO_SetPinDirection@a_u8port stored from wreg
  6703  003C  1283               	bcf	3,5	;RP0=0, select bank0
  6704  003D  1303               	bcf	3,6	;RP1=0, select bank0
  6705  003E  00A4               	movwf	GPIO_SetPinDirection@a_u8port
  6706  003F                     l2755:	
  6707                           
  6708                           ;GPIO.c: 41:     switch(a_u8port)
  6709  003F  2936               	goto	l2829
  6710  0040                     l2757:	
  6711                           
  6712                           ;GPIO.c: 45:             if(a_u8pin <= 5u)
  6713  0040  3006               	movlw	6
  6714  0041  0220               	subwf	GPIO_SetPinDirection@a_u8pin,w
  6715  0042  1803               	skipnc
  6716  0043  2845               	goto	u2441
  6717  0044  2846               	goto	u2440
  6718  0045                     u2441:	
  6719  0045  2871               	goto	l133
  6720  0046                     u2440:	
  6721  0046                     l2759:	
  6722                           
  6723                           ;GPIO.c: 46:             {;GPIO.c: 47:                 if(a_u8direction == 1u)
  6724  0046  0321               	decf	GPIO_SetPinDirection@a_u8direction,w
  6725  0047  1D03               	btfss	3,2
  6726  0048  284A               	goto	u2451
  6727  0049  284B               	goto	u2450
  6728  004A                     u2451:	
  6729  004A  285B               	goto	l2765
  6730  004B                     u2450:	
  6731  004B                     l2761:	
  6732                           
  6733                           ;GPIO.c: 48:                 {;GPIO.c: 49:                     *(volatile uint8*)0x85 |=
      +                           1 << a_u8pin;
  6734  004B  3001               	movlw	1
  6735  004C  00A2               	movwf	??_GPIO_SetPinDirection
  6736  004D  0A20               	incf	GPIO_SetPinDirection@a_u8pin,w
  6737  004E  2851               	goto	u2464
  6738  004F                     u2465:	
  6739  004F  1003               	clrc
  6740  0050  0DA2               	rlf	??_GPIO_SetPinDirection,f
  6741  0051                     u2464:	
  6742  0051  3EFF               	addlw	-1
  6743  0052  1D03               	skipz
  6744  0053  284F               	goto	u2465
  6745  0054  0822               	movf	??_GPIO_SetPinDirection,w
  6746  0055  00A3               	movwf	??_GPIO_SetPinDirection+1
  6747  0056  0823               	movf	??_GPIO_SetPinDirection+1,w
  6748  0057  1683               	bsf	3,5	;RP0=1, select bank1
  6749  0058  1303               	bcf	3,6	;RP1=0, select bank1
  6750  0059  0485               	iorwf	5,f	;volatile
  6751  005A                     l2763:	
  6752                           
  6753                           ;GPIO.c: 51:                 }
  6754  005A  294F               	goto	l166
  6755  005B                     l2765:	
  6756  005B  0821               	movf	GPIO_SetPinDirection@a_u8direction,w
  6757  005C  1D03               	btfss	3,2
  6758  005D  285F               	goto	u2471
  6759  005E  2860               	goto	u2470
  6760  005F                     u2471:	
  6761  005F  2871               	goto	l133
  6762  0060                     u2470:	
  6763  0060                     l2767:	
  6764                           
  6765                           ;GPIO.c: 53:                 {;GPIO.c: 54:                     *(volatile uint8*)0x85 &=
      +                           ~(1 << a_u8pin);
  6766  0060  3001               	movlw	1
  6767  0061  00A2               	movwf	??_GPIO_SetPinDirection
  6768  0062  0A20               	incf	GPIO_SetPinDirection@a_u8pin,w
  6769  0063  2866               	goto	u2484
  6770  0064                     u2485:	
  6771  0064  1003               	clrc
  6772  0065  0DA2               	rlf	??_GPIO_SetPinDirection,f
  6773  0066                     u2484:	
  6774  0066  3EFF               	addlw	-1
  6775  0067  1D03               	skipz
  6776  0068  2864               	goto	u2485
  6777  0069  0822               	movf	??_GPIO_SetPinDirection,w
  6778  006A  3AFF               	xorlw	255
  6779  006B  00A3               	movwf	??_GPIO_SetPinDirection+1
  6780  006C  0823               	movf	??_GPIO_SetPinDirection+1,w
  6781  006D  1683               	bsf	3,5	;RP0=1, select bank1
  6782  006E  1303               	bcf	3,6	;RP1=0, select bank1
  6783  006F  0585               	andwf	5,f	;volatile
  6784  0070  285A               	goto	l2763
  6785  0071                     l133:	
  6786                           ;GPIO.c: 57:                 else
  6787                           
  6788  0071  294F               	goto	l166
  6789  0072                     l2771:	
  6790                           
  6791                           ;GPIO.c: 71:             if(a_u8pin <= 7u)
  6792  0072  3008               	movlw	8
  6793  0073  0220               	subwf	GPIO_SetPinDirection@a_u8pin,w
  6794  0074  1803               	skipnc
  6795  0075  2877               	goto	u2491
  6796  0076  2878               	goto	u2490
  6797  0077                     u2491:	
  6798  0077  2871               	goto	l133
  6799  0078                     u2490:	
  6800  0078                     l2773:	
  6801                           
  6802                           ;GPIO.c: 72:             {;GPIO.c: 73:                 if(a_u8direction == 1u)
  6803  0078  0321               	decf	GPIO_SetPinDirection@a_u8direction,w
  6804  0079  1D03               	btfss	3,2
  6805  007A  287C               	goto	u2501
  6806  007B  287D               	goto	u2500
  6807  007C                     u2501:	
  6808  007C  288D               	goto	l2779
  6809  007D                     u2500:	
  6810  007D                     l2775:	
  6811                           
  6812                           ;GPIO.c: 74:                 {;GPIO.c: 75:                     *(volatile uint8*)0x86 |=
      +                           1 << a_u8pin;
  6813  007D  3001               	movlw	1
  6814  007E  00A2               	movwf	??_GPIO_SetPinDirection
  6815  007F  0A20               	incf	GPIO_SetPinDirection@a_u8pin,w
  6816  0080  2883               	goto	u2514
  6817  0081                     u2515:	
  6818  0081  1003               	clrc
  6819  0082  0DA2               	rlf	??_GPIO_SetPinDirection,f
  6820  0083                     u2514:	
  6821  0083  3EFF               	addlw	-1
  6822  0084  1D03               	skipz
  6823  0085  2881               	goto	u2515
  6824  0086  0822               	movf	??_GPIO_SetPinDirection,w
  6825  0087  00A3               	movwf	??_GPIO_SetPinDirection+1
  6826  0088  0823               	movf	??_GPIO_SetPinDirection+1,w
  6827  0089  1683               	bsf	3,5	;RP0=1, select bank1
  6828  008A  1303               	bcf	3,6	;RP1=0, select bank1
  6829  008B  0486               	iorwf	6,f	;volatile
  6830  008C  285A               	goto	l2763
  6831  008D                     l2779:	
  6832  008D  0821               	movf	GPIO_SetPinDirection@a_u8direction,w
  6833  008E  1D03               	btfss	3,2
  6834  008F  2891               	goto	u2521
  6835  0090  2892               	goto	u2520
  6836  0091                     u2521:	
  6837  0091  2871               	goto	l133
  6838  0092                     u2520:	
  6839  0092                     l2781:	
  6840                           
  6841                           ;GPIO.c: 79:                 {;GPIO.c: 80:                     *(volatile uint8*)0x86 &=
      +                           ~(1 << a_u8pin);
  6842  0092  3001               	movlw	1
  6843  0093  00A2               	movwf	??_GPIO_SetPinDirection
  6844  0094  0A20               	incf	GPIO_SetPinDirection@a_u8pin,w
  6845  0095  2898               	goto	u2534
  6846  0096                     u2535:	
  6847  0096  1003               	clrc
  6848  0097  0DA2               	rlf	??_GPIO_SetPinDirection,f
  6849  0098                     u2534:	
  6850  0098  3EFF               	addlw	-1
  6851  0099  1D03               	skipz
  6852  009A  2896               	goto	u2535
  6853  009B  0822               	movf	??_GPIO_SetPinDirection,w
  6854  009C  3AFF               	xorlw	255
  6855  009D  00A3               	movwf	??_GPIO_SetPinDirection+1
  6856  009E  0823               	movf	??_GPIO_SetPinDirection+1,w
  6857  009F  1683               	bsf	3,5	;RP0=1, select bank1
  6858  00A0  1303               	bcf	3,6	;RP1=0, select bank1
  6859  00A1  0586               	andwf	6,f	;volatile
  6860  00A2  285A               	goto	l2763
  6861  00A3                     l2785:	
  6862                           
  6863                           ;GPIO.c: 97:             if(a_u8pin <= 7u)
  6864  00A3  3008               	movlw	8
  6865  00A4  0220               	subwf	GPIO_SetPinDirection@a_u8pin,w
  6866  00A5  1803               	skipnc
  6867  00A6  28A8               	goto	u2541
  6868  00A7  28A9               	goto	u2540
  6869  00A8                     u2541:	
  6870  00A8  2871               	goto	l133
  6871  00A9                     u2540:	
  6872  00A9                     l2787:	
  6873                           
  6874                           ;GPIO.c: 98:             {;GPIO.c: 99:                 if(a_u8direction == 1u)
  6875  00A9  0321               	decf	GPIO_SetPinDirection@a_u8direction,w
  6876  00AA  1D03               	btfss	3,2
  6877  00AB  28AD               	goto	u2551
  6878  00AC  28AE               	goto	u2550
  6879  00AD                     u2551:	
  6880  00AD  28BE               	goto	l2793
  6881  00AE                     u2550:	
  6882  00AE                     l2789:	
  6883                           
  6884                           ;GPIO.c: 100:                 {;GPIO.c: 101:                     *(volatile uint8*)0x87 
      +                          |= 1 << a_u8pin;
  6885  00AE  3001               	movlw	1
  6886  00AF  00A2               	movwf	??_GPIO_SetPinDirection
  6887  00B0  0A20               	incf	GPIO_SetPinDirection@a_u8pin,w
  6888  00B1  28B4               	goto	u2564
  6889  00B2                     u2565:	
  6890  00B2  1003               	clrc
  6891  00B3  0DA2               	rlf	??_GPIO_SetPinDirection,f
  6892  00B4                     u2564:	
  6893  00B4  3EFF               	addlw	-1
  6894  00B5  1D03               	skipz
  6895  00B6  28B2               	goto	u2565
  6896  00B7  0822               	movf	??_GPIO_SetPinDirection,w
  6897  00B8  00A3               	movwf	??_GPIO_SetPinDirection+1
  6898  00B9  0823               	movf	??_GPIO_SetPinDirection+1,w
  6899  00BA  1683               	bsf	3,5	;RP0=1, select bank1
  6900  00BB  1303               	bcf	3,6	;RP1=0, select bank1
  6901  00BC  0487               	iorwf	7,f	;volatile
  6902  00BD  285A               	goto	l2763
  6903  00BE                     l2793:	
  6904  00BE  0821               	movf	GPIO_SetPinDirection@a_u8direction,w
  6905  00BF  1D03               	btfss	3,2
  6906  00C0  28C2               	goto	u2571
  6907  00C1  28C3               	goto	u2570
  6908  00C2                     u2571:	
  6909  00C2  2871               	goto	l133
  6910  00C3                     u2570:	
  6911  00C3                     l2795:	
  6912                           
  6913                           ;GPIO.c: 105:                 {;GPIO.c: 106:                     *(volatile uint8*)0x87 
      +                          &= ~(1 << a_u8pin);
  6914  00C3  3001               	movlw	1
  6915  00C4  00A2               	movwf	??_GPIO_SetPinDirection
  6916  00C5  0A20               	incf	GPIO_SetPinDirection@a_u8pin,w
  6917  00C6  28C9               	goto	u2584
  6918  00C7                     u2585:	
  6919  00C7  1003               	clrc
  6920  00C8  0DA2               	rlf	??_GPIO_SetPinDirection,f
  6921  00C9                     u2584:	
  6922  00C9  3EFF               	addlw	-1
  6923  00CA  1D03               	skipz
  6924  00CB  28C7               	goto	u2585
  6925  00CC  0822               	movf	??_GPIO_SetPinDirection,w
  6926  00CD  3AFF               	xorlw	255
  6927  00CE  00A3               	movwf	??_GPIO_SetPinDirection+1
  6928  00CF  0823               	movf	??_GPIO_SetPinDirection+1,w
  6929  00D0  1683               	bsf	3,5	;RP0=1, select bank1
  6930  00D1  1303               	bcf	3,6	;RP1=0, select bank1
  6931  00D2  0587               	andwf	7,f	;volatile
  6932  00D3  285A               	goto	l2763
  6933  00D4                     l2799:	
  6934                           
  6935                           ;GPIO.c: 123:             if(a_u8pin <= 7u)
  6936  00D4  3008               	movlw	8
  6937  00D5  0220               	subwf	GPIO_SetPinDirection@a_u8pin,w
  6938  00D6  1803               	skipnc
  6939  00D7  28D9               	goto	u2591
  6940  00D8  28DA               	goto	u2590
  6941  00D9                     u2591:	
  6942  00D9  2871               	goto	l133
  6943  00DA                     u2590:	
  6944  00DA                     l2801:	
  6945                           
  6946                           ;GPIO.c: 124:             {;GPIO.c: 125:                 if(a_u8direction == 1u)
  6947  00DA  0321               	decf	GPIO_SetPinDirection@a_u8direction,w
  6948  00DB  1D03               	btfss	3,2
  6949  00DC  28DE               	goto	u2601
  6950  00DD  28DF               	goto	u2600
  6951  00DE                     u2601:	
  6952  00DE  28EF               	goto	l2807
  6953  00DF                     u2600:	
  6954  00DF                     l2803:	
  6955                           
  6956                           ;GPIO.c: 126:                 {;GPIO.c: 127:                     *(volatile uint8*)0x88 
      +                          |= 1 << a_u8pin;
  6957  00DF  3001               	movlw	1
  6958  00E0  00A2               	movwf	??_GPIO_SetPinDirection
  6959  00E1  0A20               	incf	GPIO_SetPinDirection@a_u8pin,w
  6960  00E2  28E5               	goto	u2614
  6961  00E3                     u2615:	
  6962  00E3  1003               	clrc
  6963  00E4  0DA2               	rlf	??_GPIO_SetPinDirection,f
  6964  00E5                     u2614:	
  6965  00E5  3EFF               	addlw	-1
  6966  00E6  1D03               	skipz
  6967  00E7  28E3               	goto	u2615
  6968  00E8  0822               	movf	??_GPIO_SetPinDirection,w
  6969  00E9  00A3               	movwf	??_GPIO_SetPinDirection+1
  6970  00EA  0823               	movf	??_GPIO_SetPinDirection+1,w
  6971  00EB  1683               	bsf	3,5	;RP0=1, select bank1
  6972  00EC  1303               	bcf	3,6	;RP1=0, select bank1
  6973  00ED  0488               	iorwf	8,f	;volatile
  6974  00EE  285A               	goto	l2763
  6975  00EF                     l2807:	
  6976  00EF  0821               	movf	GPIO_SetPinDirection@a_u8direction,w
  6977  00F0  1D03               	btfss	3,2
  6978  00F1  28F3               	goto	u2621
  6979  00F2  28F4               	goto	u2620
  6980  00F3                     u2621:	
  6981  00F3  2871               	goto	l133
  6982  00F4                     u2620:	
  6983  00F4                     l2809:	
  6984                           
  6985                           ;GPIO.c: 131:                 {;GPIO.c: 132:                     *(volatile uint8*)0x88 
      +                          &= ~(1 << a_u8pin);
  6986  00F4  3001               	movlw	1
  6987  00F5  00A2               	movwf	??_GPIO_SetPinDirection
  6988  00F6  0A20               	incf	GPIO_SetPinDirection@a_u8pin,w
  6989  00F7  28FA               	goto	u2634
  6990  00F8                     u2635:	
  6991  00F8  1003               	clrc
  6992  00F9  0DA2               	rlf	??_GPIO_SetPinDirection,f
  6993  00FA                     u2634:	
  6994  00FA  3EFF               	addlw	-1
  6995  00FB  1D03               	skipz
  6996  00FC  28F8               	goto	u2635
  6997  00FD  0822               	movf	??_GPIO_SetPinDirection,w
  6998  00FE  3AFF               	xorlw	255
  6999  00FF  00A3               	movwf	??_GPIO_SetPinDirection+1
  7000  0100  0823               	movf	??_GPIO_SetPinDirection+1,w
  7001  0101  1683               	bsf	3,5	;RP0=1, select bank1
  7002  0102  1303               	bcf	3,6	;RP1=0, select bank1
  7003  0103  0588               	andwf	8,f	;volatile
  7004  0104  285A               	goto	l2763
  7005  0105                     l2813:	
  7006                           
  7007                           ;GPIO.c: 149:             if(a_u8pin < 3u)
  7008  0105  3003               	movlw	3
  7009  0106  0220               	subwf	GPIO_SetPinDirection@a_u8pin,w
  7010  0107  1803               	skipnc
  7011  0108  290A               	goto	u2641
  7012  0109  290B               	goto	u2640
  7013  010A                     u2641:	
  7014  010A  2871               	goto	l133
  7015  010B                     u2640:	
  7016  010B                     l2815:	
  7017                           
  7018                           ;GPIO.c: 150:             {;GPIO.c: 151:                 if(a_u8direction == 1u)
  7019  010B  0321               	decf	GPIO_SetPinDirection@a_u8direction,w
  7020  010C  1D03               	btfss	3,2
  7021  010D  290F               	goto	u2651
  7022  010E  2910               	goto	u2650
  7023  010F                     u2651:	
  7024  010F  2920               	goto	l2821
  7025  0110                     u2650:	
  7026  0110                     l2817:	
  7027                           
  7028                           ;GPIO.c: 152:                 {;GPIO.c: 153:                     *(volatile uint8*)0x89 
      +                          |= 1 << a_u8pin;
  7029  0110  3001               	movlw	1
  7030  0111  00A2               	movwf	??_GPIO_SetPinDirection
  7031  0112  0A20               	incf	GPIO_SetPinDirection@a_u8pin,w
  7032  0113  2916               	goto	u2664
  7033  0114                     u2665:	
  7034  0114  1003               	clrc
  7035  0115  0DA2               	rlf	??_GPIO_SetPinDirection,f
  7036  0116                     u2664:	
  7037  0116  3EFF               	addlw	-1
  7038  0117  1D03               	skipz
  7039  0118  2914               	goto	u2665
  7040  0119  0822               	movf	??_GPIO_SetPinDirection,w
  7041  011A  00A3               	movwf	??_GPIO_SetPinDirection+1
  7042  011B  0823               	movf	??_GPIO_SetPinDirection+1,w
  7043  011C  1683               	bsf	3,5	;RP0=1, select bank1
  7044  011D  1303               	bcf	3,6	;RP1=0, select bank1
  7045  011E  0489               	iorwf	9,f	;volatile
  7046  011F  285A               	goto	l2763
  7047  0120                     l2821:	
  7048  0120  0821               	movf	GPIO_SetPinDirection@a_u8direction,w
  7049  0121  1D03               	btfss	3,2
  7050  0122  2924               	goto	u2671
  7051  0123  2925               	goto	u2670
  7052  0124                     u2671:	
  7053  0124  2871               	goto	l133
  7054  0125                     u2670:	
  7055  0125                     l2823:	
  7056                           
  7057                           ;GPIO.c: 157:                 {;GPIO.c: 158:                     *(volatile uint8*)0x89 
      +                          &= ~(1 << a_u8pin);
  7058  0125  3001               	movlw	1
  7059  0126  00A2               	movwf	??_GPIO_SetPinDirection
  7060  0127  0A20               	incf	GPIO_SetPinDirection@a_u8pin,w
  7061  0128  292B               	goto	u2684
  7062  0129                     u2685:	
  7063  0129  1003               	clrc
  7064  012A  0DA2               	rlf	??_GPIO_SetPinDirection,f
  7065  012B                     u2684:	
  7066  012B  3EFF               	addlw	-1
  7067  012C  1D03               	skipz
  7068  012D  2929               	goto	u2685
  7069  012E  0822               	movf	??_GPIO_SetPinDirection,w
  7070  012F  3AFF               	xorlw	255
  7071  0130  00A3               	movwf	??_GPIO_SetPinDirection+1
  7072  0131  0823               	movf	??_GPIO_SetPinDirection+1,w
  7073  0132  1683               	bsf	3,5	;RP0=1, select bank1
  7074  0133  1303               	bcf	3,6	;RP1=0, select bank1
  7075  0134  0589               	andwf	9,f	;volatile
  7076  0135  285A               	goto	l2763
  7077  0136                     l2829:	
  7078  0136  0824               	movf	GPIO_SetPinDirection@a_u8port,w
  7079  0137  00A2               	movwf	??_GPIO_SetPinDirection
  7080  0138  01A3               	clrf	??_GPIO_SetPinDirection+1
  7081                           
  7082                           ; Switch on 2 bytes has been partitioned into a top level switch of size 1, and 1 sub-sw
      +                          itches
  7083                           ; Switch size 1, requested type "simple"
  7084                           ; Number of cases is 1, Range of values is 0 to 0
  7085                           ; switch strategies available:
  7086                           ; Name         Instructions Cycles
  7087                           ; simple_byte            4     3 (average)
  7088                           ; direct_byte           11     8 (fixed)
  7089                           ; jumptable            260     6 (fixed)
  7090                           ;	Chosen strategy is simple_byte
  7091  0139  0823               	movf	??_GPIO_SetPinDirection+1,w
  7092  013A  3A00               	xorlw	0	; case 0
  7093  013B  1903               	skipnz
  7094  013C  293E               	goto	l4083
  7095  013D  2871               	goto	l133
  7096  013E                     l4083:	
  7097                           
  7098                           ; Switch size 1, requested type "simple"
  7099                           ; Number of cases is 5, Range of values is 0 to 4
  7100                           ; switch strategies available:
  7101                           ; Name         Instructions Cycles
  7102                           ; simple_byte           16     9 (average)
  7103                           ; direct_byte           23     8 (fixed)
  7104                           ; jumptable            260     6 (fixed)
  7105                           ;	Chosen strategy is simple_byte
  7106  013E  0822               	movf	??_GPIO_SetPinDirection,w
  7107  013F  3A00               	xorlw	0	; case 0
  7108  0140  1903               	skipnz
  7109  0141  2840               	goto	l2757
  7110  0142  3A01               	xorlw	1	; case 1
  7111  0143  1903               	skipnz
  7112  0144  2872               	goto	l2771
  7113  0145  3A03               	xorlw	3	; case 2
  7114  0146  1903               	skipnz
  7115  0147  28A3               	goto	l2785
  7116  0148  3A01               	xorlw	1	; case 3
  7117  0149  1903               	skipnz
  7118  014A  28D4               	goto	l2799
  7119  014B  3A07               	xorlw	7	; case 4
  7120  014C  1903               	skipnz
  7121  014D  2905               	goto	l2813
  7122  014E  2871               	goto	l133
  7123  014F                     l166:	
  7124  014F  0008               	return
  7125  0150                     __end_of_GPIO_SetPinDirection:	
  7126                           
  7127                           	psect	text42
  7128  0859                     __ptext42:	
  7129 ;; *************** function _GPIO_Enable_Pull_Up_On_PortB *****************
  7130 ;; Defined at:
  7131 ;;		line 762 in file "GPIO.c"
  7132 ;; Parameters:    Size  Location     Type
  7133 ;;		None
  7134 ;; Auto vars:     Size  Location     Type
  7135 ;;		None
  7136 ;; Return value:  Size  Location     Type
  7137 ;;                  1    wreg      void 
  7138 ;; Registers used:
  7139 ;;		wreg, status,2, status,0
  7140 ;; Tracked objects:
  7141 ;;		On entry : 0/0
  7142 ;;		On exit  : 0/0
  7143 ;;		Unchanged: 0/0
  7144 ;; Data sizes:     COMMON   BANK0   BANK1   BANK3   BANK2
  7145 ;;      Params:         0       0       0       0       0
  7146 ;;      Locals:         0       0       0       0       0
  7147 ;;      Temps:          0       1       0       0       0
  7148 ;;      Totals:         0       1       0       0       0
  7149 ;;Total ram usage:        1 bytes
  7150 ;; Hardware stack levels used:    1
  7151 ;; Hardware stack levels required when called:    3
  7152 ;; This function calls:
  7153 ;;		Nothing
  7154 ;; This function is called by:
  7155 ;;		_Heater_Initialization
  7156 ;; This function uses a non-reentrant model
  7157 ;;
  7158                           
  7159                           
  7160                           ;psect for function _GPIO_Enable_Pull_Up_On_PortB
  7161  0859                     _GPIO_Enable_Pull_Up_On_PortB:	
  7162  0859                     l3395:	
  7163                           ;incstack = 0
  7164                           ; Regs used in _GPIO_Enable_Pull_Up_On_PortB: [wreg+status,2+status,0]
  7165                           
  7166                           
  7167                           ;GPIO.c: 764:     *(volatile uint8*)0x81 &= ~(1 << 7u);
  7168  0859  307F               	movlw	127
  7169  085A  1283               	bcf	3,5	;RP0=0, select bank0
  7170  085B  1303               	bcf	3,6	;RP1=0, select bank0
  7171  085C  00A0               	movwf	??_GPIO_Enable_Pull_Up_On_PortB
  7172  085D  0820               	movf	??_GPIO_Enable_Pull_Up_On_PortB,w
  7173  085E  1683               	bsf	3,5	;RP0=1, select bank1
  7174  085F  1303               	bcf	3,6	;RP1=0, select bank1
  7175  0860  0581               	andwf	1,f	;volatile
  7176  0861                     l312:	
  7177  0861  0008               	return
  7178  0862                     __end_of_GPIO_Enable_Pull_Up_On_PortB:	
  7179                           
  7180                           	psect	text43
  7181  0850                     __ptext43:	
  7182 ;; *************** function _External_interrupt_select_falling_edge *****************
  7183 ;; Defined at:
  7184 ;;		line 257 in file "interrupt.c"
  7185 ;; Parameters:    Size  Location     Type
  7186 ;;		None
  7187 ;; Auto vars:     Size  Location     Type
  7188 ;;		None
  7189 ;; Return value:  Size  Location     Type
  7190 ;;                  1    wreg      void 
  7191 ;; Registers used:
  7192 ;;		wreg, status,2, status,0
  7193 ;; Tracked objects:
  7194 ;;		On entry : 0/0
  7195 ;;		On exit  : 0/0
  7196 ;;		Unchanged: 0/0
  7197 ;; Data sizes:     COMMON   BANK0   BANK1   BANK3   BANK2
  7198 ;;      Params:         0       0       0       0       0
  7199 ;;      Locals:         0       0       0       0       0
  7200 ;;      Temps:          0       1       0       0       0
  7201 ;;      Totals:         0       1       0       0       0
  7202 ;;Total ram usage:        1 bytes
  7203 ;; Hardware stack levels used:    1
  7204 ;; Hardware stack levels required when called:    3
  7205 ;; This function calls:
  7206 ;;		Nothing
  7207 ;; This function is called by:
  7208 ;;		_Heater_Initialization
  7209 ;; This function uses a non-reentrant model
  7210 ;;
  7211                           
  7212                           
  7213                           ;psect for function _External_interrupt_select_falling_edge
  7214  0850                     _External_interrupt_select_falling_edge:	
  7215  0850                     l3403:	
  7216                           ;incstack = 0
  7217                           ; Regs used in _External_interrupt_select_falling_edge: [wreg+status,2+status,0]
  7218                           
  7219                           
  7220                           ;interrupt.c: 259:     *(volatile uint8*)0x81 &= ~(1 << 6u);
  7221  0850  30BF               	movlw	191
  7222  0851  1283               	bcf	3,5	;RP0=0, select bank0
  7223  0852  1303               	bcf	3,6	;RP1=0, select bank0
  7224  0853  00A0               	movwf	??_External_interrupt_select_falling_edge
  7225  0854  0820               	movf	??_External_interrupt_select_falling_edge,w
  7226  0855  1683               	bsf	3,5	;RP0=1, select bank1
  7227  0856  1303               	bcf	3,6	;RP1=0, select bank1
  7228  0857  0581               	andwf	1,f	;volatile
  7229  0858                     l409:	
  7230  0858  0008               	return
  7231  0859                     __end_of_External_interrupt_select_falling_edge:	
  7232                           
  7233                           	psect	text44
  7234  082B                     __ptext44:	
  7235 ;; *************** function _External_interrupt_enable *****************
  7236 ;; Defined at:
  7237 ;;		line 209 in file "interrupt.c"
  7238 ;; Parameters:    Size  Location     Type
  7239 ;;		None
  7240 ;; Auto vars:     Size  Location     Type
  7241 ;;		None
  7242 ;; Return value:  Size  Location     Type
  7243 ;;                  1    wreg      void 
  7244 ;; Registers used:
  7245 ;;		None
  7246 ;; Tracked objects:
  7247 ;;		On entry : 0/0
  7248 ;;		On exit  : 0/0
  7249 ;;		Unchanged: 0/0
  7250 ;; Data sizes:     COMMON   BANK0   BANK1   BANK3   BANK2
  7251 ;;      Params:         0       0       0       0       0
  7252 ;;      Locals:         0       0       0       0       0
  7253 ;;      Temps:          0       0       0       0       0
  7254 ;;      Totals:         0       0       0       0       0
  7255 ;;Total ram usage:        0 bytes
  7256 ;; Hardware stack levels used:    1
  7257 ;; Hardware stack levels required when called:    3
  7258 ;; This function calls:
  7259 ;;		Nothing
  7260 ;; This function is called by:
  7261 ;;		_Heater_Initialization
  7262 ;; This function uses a non-reentrant model
  7263 ;;
  7264                           
  7265                           
  7266                           ;psect for function _External_interrupt_enable
  7267  082B                     _External_interrupt_enable:	
  7268  082B                     l3401:	
  7269                           ;incstack = 0
  7270                           ; Regs used in _External_interrupt_enable: []
  7271                           
  7272                           
  7273                           ;interrupt.c: 211:     *(volatile uint8*)0x0B |= 1 << 4u;
  7274  082B  160B               	bsf	11,4	;volatile
  7275  082C                     l400:	
  7276  082C  0008               	return
  7277  082D                     __end_of_External_interrupt_enable:	
  7278                           
  7279                           	psect	text45
  7280  086C                     __ptext45:	
  7281 ;; *************** function _EEPROM_Initialization *****************
  7282 ;; Defined at:
  7283 ;;		line 36 in file "EEPROM24c04.c"
  7284 ;; Parameters:    Size  Location     Type
  7285 ;;		None
  7286 ;; Auto vars:     Size  Location     Type
  7287 ;;		None
  7288 ;; Return value:  Size  Location     Type
  7289 ;;                  1    wreg      void 
  7290 ;; Registers used:
  7291 ;;		wreg, status,2, status,0, pclath, cstack
  7292 ;; Tracked objects:
  7293 ;;		On entry : 0/0
  7294 ;;		On exit  : 0/0
  7295 ;;		Unchanged: 0/0
  7296 ;; Data sizes:     COMMON   BANK0   BANK1   BANK3   BANK2
  7297 ;;      Params:         0       0       0       0       0
  7298 ;;      Locals:         0       0       0       0       0
  7299 ;;      Temps:          0       0       0       0       0
  7300 ;;      Totals:         0       0       0       0       0
  7301 ;;Total ram usage:        0 bytes
  7302 ;; Hardware stack levels used:    1
  7303 ;; Hardware stack levels required when called:    5
  7304 ;; This function calls:
  7305 ;;		_I2C_Master_Initialization
  7306 ;; This function is called by:
  7307 ;;		_Heater_Initialization
  7308 ;; This function uses a non-reentrant model
  7309 ;;
  7310                           
  7311                           
  7312                           ;psect for function _EEPROM_Initialization
  7313  086C                     _EEPROM_Initialization:	
  7314  086C                     l3387:	
  7315                           ;incstack = 0
  7316                           ; Regs used in _EEPROM_Initialization: [wreg+status,2+status,0+pclath+cstack]
  7317                           
  7318                           
  7319                           ;EEPROM24c04.c: 39:     I2C_Master_Initialization(I2C_MASTER_MODE , I2C_100KHZ);
  7320  086C  30A0               	movlw	160
  7321  086D  1283               	bcf	3,5	;RP0=0, select bank0
  7322  086E  1303               	bcf	3,6	;RP1=0, select bank0
  7323  086F  00AE               	movwf	I2C_Master_Initialization@a_I2C_baud_rate_t
  7324  0870  3086               	movlw	134
  7325  0871  00AF               	movwf	I2C_Master_Initialization@a_I2C_baud_rate_t+1
  7326  0872  3000               	movlw	0
  7327  0873  120A  158A  25FC  120A  158A  	fcall	_I2C_Master_Initialization
  7328  0878                     l93:	
  7329  0878  0008               	return
  7330  0879                     __end_of_EEPROM_Initialization:	
  7331                           
  7332                           	psect	text46
  7333  0DFC                     __ptext46:	
  7334 ;; *************** function _I2C_Master_Initialization *****************
  7335 ;; Defined at:
  7336 ;;		line 37 in file "I2C.c"
  7337 ;; Parameters:    Size  Location     Type
  7338 ;;  a_I2C_master    1    wreg     enum E10
  7339 ;;  a_I2C_baud_r    2   14[BANK0 ] enum E14
  7340 ;; Auto vars:     Size  Location     Type
  7341 ;;  a_I2C_master    1   21[BANK0 ] enum E10
  7342 ;; Return value:  Size  Location     Type
  7343 ;;                  1    wreg      void 
  7344 ;; Registers used:
  7345 ;;		wreg, status,2, status,0, pclath, cstack
  7346 ;; Tracked objects:
  7347 ;;		On entry : 0/0
  7348 ;;		On exit  : 0/0
  7349 ;;		Unchanged: 0/0
  7350 ;; Data sizes:     COMMON   BANK0   BANK1   BANK3   BANK2
  7351 ;;      Params:         0       2       0       0       0
  7352 ;;      Locals:         0       1       0       0       0
  7353 ;;      Temps:          0       5       0       0       0
  7354 ;;      Totals:         0       8       0       0       0
  7355 ;;Total ram usage:        8 bytes
  7356 ;; Hardware stack levels used:    1
  7357 ;; Hardware stack levels required when called:    4
  7358 ;; This function calls:
  7359 ;;		___lldiv
  7360 ;; This function is called by:
  7361 ;;		_EEPROM_Initialization
  7362 ;; This function uses a non-reentrant model
  7363 ;;
  7364                           
  7365                           
  7366                           ;psect for function _I2C_Master_Initialization
  7367  0DFC                     _I2C_Master_Initialization:	
  7368                           
  7369                           ;incstack = 0
  7370                           ; Regs used in _I2C_Master_Initialization: [wreg+status,2+status,0+pclath+cstack]
  7371                           ;I2C_Master_Initialization@a_I2C_master_mode_t stored from wreg
  7372  0DFC  1283               	bcf	3,5	;RP0=0, select bank0
  7373  0DFD  1303               	bcf	3,6	;RP1=0, select bank0
  7374  0DFE  00B5               	movwf	I2C_Master_Initialization@a_I2C_master_mode_t
  7375  0DFF                     l2971:	
  7376                           
  7377                           ;I2C.c: 37: void I2C_Master_Initialization(EnumI2C_MasterMode_t a_I2C_master_mode_t ,;I2
      +                          C.c: 38:                                EnumI2C_BaudRate_t a_I2C_baud_rate_t);I2C.c: 39:
      +                           {;I2C.c: 41:     *(volatile uint8*)0x14 &= 0xF0;
  7378  0DFF  30F0               	movlw	240
  7379  0E00  00B0               	movwf	??_I2C_Master_Initialization
  7380  0E01  0830               	movf	??_I2C_Master_Initialization,w
  7381  0E02  0594               	andwf	20,f	;volatile
  7382                           
  7383                           ;I2C.c: 43:     if(a_I2C_master_mode_t == I2C_FIRMWARE_CONTROLLED_MASTER_MODE)
  7384  0E03  0335               	decf	I2C_Master_Initialization@a_I2C_master_mode_t,w
  7385  0E04  1D03               	btfss	3,2
  7386  0E05  2E07               	goto	u3011
  7387  0E06  2E08               	goto	u3010
  7388  0E07                     u3011:	
  7389  0E07  2E0D               	goto	l318
  7390  0E08                     u3010:	
  7391  0E08                     l2973:	
  7392                           
  7393                           ;I2C.c: 44:     {;I2C.c: 45:         *(volatile uint8*)0x14 |= 0x0B;
  7394  0E08  300B               	movlw	11
  7395  0E09  00B0               	movwf	??_I2C_Master_Initialization
  7396  0E0A  0830               	movf	??_I2C_Master_Initialization,w
  7397  0E0B  0494               	iorwf	20,f	;volatile
  7398                           
  7399                           ;I2C.c: 46:     }
  7400  0E0C  2E0E               	goto	l2975
  7401  0E0D                     l318:	
  7402                           ;I2C.c: 47:     else
  7403                           
  7404                           
  7405                           ;I2C.c: 48:     {;I2C.c: 49:         *(volatile uint8*)0x14 |= 0x08;
  7406  0E0D  1594               	bsf	20,3	;volatile
  7407  0E0E                     l2975:	
  7408                           
  7409                           ;I2C.c: 52:     *(volatile uint8*)0x94 &= ~(1 << 6u);
  7410  0E0E  30BF               	movlw	191
  7411  0E0F  00B0               	movwf	??_I2C_Master_Initialization
  7412  0E10  0830               	movf	??_I2C_Master_Initialization,w
  7413  0E11  1683               	bsf	3,5	;RP0=1, select bank1
  7414  0E12  1303               	bcf	3,6	;RP1=0, select bank1
  7415  0E13  0594               	andwf	20,f	;volatile
  7416                           
  7417                           ;I2C.c: 54:     if(a_I2C_baud_rate_t == I2C_400KHZ)
  7418  0E14  3080               	movlw	128
  7419  0E15  1283               	bcf	3,5	;RP0=0, select bank0
  7420  0E16  1303               	bcf	3,6	;RP1=0, select bank0
  7421  0E17  062E               	xorwf	I2C_Master_Initialization@a_I2C_baud_rate_t,w
  7422  0E18  301A               	movlw	26
  7423  0E19  1903               	skipnz
  7424  0E1A  062F               	xorwf	I2C_Master_Initialization@a_I2C_baud_rate_t+1,w
  7425  0E1B  1D03               	btfss	3,2
  7426  0E1C  2E1E               	goto	u3021
  7427  0E1D  2E1F               	goto	u3020
  7428  0E1E                     u3021:	
  7429  0E1E  2E26               	goto	l320
  7430  0E1F                     u3020:	
  7431  0E1F                     l2977:	
  7432                           
  7433                           ;I2C.c: 55:     {;I2C.c: 56:         *(volatile uint8*)0x94 &= ~(1 << 7u);
  7434  0E1F  307F               	movlw	127
  7435  0E20  00B0               	movwf	??_I2C_Master_Initialization
  7436  0E21  0830               	movf	??_I2C_Master_Initialization,w
  7437  0E22  1683               	bsf	3,5	;RP0=1, select bank1
  7438  0E23  1303               	bcf	3,6	;RP1=0, select bank1
  7439  0E24  0594               	andwf	20,f	;volatile
  7440                           
  7441                           ;I2C.c: 57:     }
  7442  0E25  2E29               	goto	l2979
  7443  0E26                     l320:	
  7444                           ;I2C.c: 58:     else
  7445                           
  7446                           
  7447                           ;I2C.c: 59:     {;I2C.c: 60:         *(volatile uint8*)0x94 |= 1 << 7u;
  7448  0E26  1683               	bsf	3,5	;RP0=1, select bank1
  7449  0E27  1303               	bcf	3,6	;RP1=0, select bank1
  7450  0E28  1794               	bsf	20,7	;volatile
  7451  0E29                     l2979:	
  7452                           
  7453                           ;I2C.c: 63:     *(volatile uint8*)0x93 = (8000000u / (4 * a_I2C_baud_rate_t)) - 1;
  7454  0E29  1283               	bcf	3,5	;RP0=0, select bank0
  7455  0E2A  1303               	bcf	3,6	;RP1=0, select bank0
  7456  0E2B  082E               	movf	I2C_Master_Initialization@a_I2C_baud_rate_t,w
  7457  0E2C  00B0               	movwf	??_I2C_Master_Initialization
  7458  0E2D  082F               	movf	I2C_Master_Initialization@a_I2C_baud_rate_t+1,w
  7459  0E2E  00B1               	movwf	??_I2C_Master_Initialization+1
  7460  0E2F  01B2               	clrf	??_I2C_Master_Initialization+2
  7461  0E30  01B3               	clrf	??_I2C_Master_Initialization+3
  7462  0E31  3002               	movlw	2
  7463  0E32                     u3035:	
  7464  0E32  1003               	clrc
  7465  0E33  0DB0               	rlf	??_I2C_Master_Initialization,f
  7466  0E34  0DB1               	rlf	??_I2C_Master_Initialization+1,f
  7467  0E35  0DB2               	rlf	??_I2C_Master_Initialization+2,f
  7468  0E36  0DB3               	rlf	??_I2C_Master_Initialization+3,f
  7469  0E37                     u3030:	
  7470  0E37  3EFF               	addlw	-1
  7471  0E38  1D03               	skipz
  7472  0E39  2E32               	goto	u3035
  7473  0E3A  0833               	movf	??_I2C_Master_Initialization+3,w
  7474  0E3B  00A3               	movwf	___lldiv@divisor+3
  7475  0E3C  0832               	movf	??_I2C_Master_Initialization+2,w
  7476  0E3D  00A2               	movwf	___lldiv@divisor+2
  7477  0E3E  0831               	movf	??_I2C_Master_Initialization+1,w
  7478  0E3F  00A1               	movwf	___lldiv@divisor+1
  7479  0E40  0830               	movf	??_I2C_Master_Initialization,w
  7480  0E41  00A0               	movwf	___lldiv@divisor
  7481  0E42  3000               	movlw	0
  7482  0E43  00A7               	movwf	___lldiv@dividend+3
  7483  0E44  307A               	movlw	122
  7484  0E45  00A6               	movwf	___lldiv@dividend+2
  7485  0E46  3012               	movlw	18
  7486  0E47  00A5               	movwf	___lldiv@dividend+1
  7487  0E48  3000               	movlw	0
  7488  0E49  00A4               	movwf	___lldiv@dividend
  7489  0E4A  120A  158A  26C5  120A  158A  	fcall	___lldiv
  7490  0E4F  1283               	bcf	3,5	;RP0=0, select bank0
  7491  0E50  1303               	bcf	3,6	;RP1=0, select bank0
  7492  0E51  0820               	movf	?___lldiv,w
  7493  0E52  3EFF               	addlw	255
  7494  0E53  00B4               	movwf	??_I2C_Master_Initialization+4
  7495  0E54  0834               	movf	??_I2C_Master_Initialization+4,w
  7496  0E55  1683               	bsf	3,5	;RP0=1, select bank1
  7497  0E56  1303               	bcf	3,6	;RP1=0, select bank1
  7498  0E57  0093               	movwf	19	;volatile
  7499  0E58                     l2981:	
  7500                           
  7501                           ;I2C.c: 65:     *(volatile uint8*)0x87 |= 1 << 3u;
  7502  0E58  1587               	bsf	7,3	;volatile
  7503  0E59                     l2983:	
  7504                           
  7505                           ;I2C.c: 66:     *(volatile uint8*)0x87 |= 1 << 4u;
  7506  0E59  1607               	bsf	7,4	;volatile
  7507  0E5A                     l2985:	
  7508                           
  7509                           ;I2C.c: 68:     *(volatile uint8*)0x14 |= 1 << 5u;
  7510  0E5A  1283               	bcf	3,5	;RP0=0, select bank0
  7511  0E5B  1303               	bcf	3,6	;RP1=0, select bank0
  7512  0E5C  1694               	bsf	20,5	;volatile
  7513  0E5D                     l322:	
  7514  0E5D  0008               	return
  7515  0E5E                     __end_of_I2C_Master_Initialization:	
  7516                           
  7517                           	psect	text47
  7518  0EC5                     __ptext47:	
  7519 ;; *************** function ___lldiv *****************
  7520 ;; Defined at:
  7521 ;;		line 5 in file "C:\Program Files (x86)\Microchip\xc8\v2.10\pic\sources\c90\common\__lldiv.c"
  7522 ;; Parameters:    Size  Location     Type
  7523 ;;  divisor         4    0[BANK0 ] unsigned long 
  7524 ;;  dividend        4    4[BANK0 ] unsigned long 
  7525 ;; Auto vars:     Size  Location     Type
  7526 ;;  quotient        4    9[BANK0 ] unsigned long 
  7527 ;;  counter         1   13[BANK0 ] unsigned char 
  7528 ;; Return value:  Size  Location     Type
  7529 ;;                  4    0[BANK0 ] unsigned long 
  7530 ;; Registers used:
  7531 ;;		wreg, status,2, status,0
  7532 ;; Tracked objects:
  7533 ;;		On entry : 0/0
  7534 ;;		On exit  : 0/0
  7535 ;;		Unchanged: 0/0
  7536 ;; Data sizes:     COMMON   BANK0   BANK1   BANK3   BANK2
  7537 ;;      Params:         0       8       0       0       0
  7538 ;;      Locals:         0       5       0       0       0
  7539 ;;      Temps:          0       1       0       0       0
  7540 ;;      Totals:         0      14       0       0       0
  7541 ;;Total ram usage:       14 bytes
  7542 ;; Hardware stack levels used:    1
  7543 ;; Hardware stack levels required when called:    3
  7544 ;; This function calls:
  7545 ;;		Nothing
  7546 ;; This function is called by:
  7547 ;;		_I2C_Master_Initialization
  7548 ;; This function uses a non-reentrant model
  7549 ;;
  7550                           
  7551                           
  7552                           ;psect for function ___lldiv
  7553  0EC5                     ___lldiv:	
  7554  0EC5                     l2947:	
  7555                           ;incstack = 0
  7556                           ; Regs used in ___lldiv: [wreg+status,2+status,0]
  7557                           
  7558  0EC5  3000               	movlw	0
  7559  0EC6  1283               	bcf	3,5	;RP0=0, select bank0
  7560  0EC7  1303               	bcf	3,6	;RP1=0, select bank0
  7561  0EC8  00AC               	movwf	___lldiv@quotient+3
  7562  0EC9  3000               	movlw	0
  7563  0ECA  00AB               	movwf	___lldiv@quotient+2
  7564  0ECB  3000               	movlw	0
  7565  0ECC  00AA               	movwf	___lldiv@quotient+1
  7566  0ECD  3000               	movlw	0
  7567  0ECE  00A9               	movwf	___lldiv@quotient
  7568  0ECF  0823               	movf	___lldiv@divisor+3,w
  7569  0ED0  0422               	iorwf	___lldiv@divisor+2,w
  7570  0ED1  0421               	iorwf	___lldiv@divisor+1,w
  7571  0ED2  0420               	iorwf	___lldiv@divisor,w
  7572  0ED3  1903               	skipnz
  7573  0ED4  2ED6               	goto	u2941
  7574  0ED5  2ED7               	goto	u2940
  7575  0ED6                     u2941:	
  7576  0ED6  2F24               	goto	l2967
  7577  0ED7                     u2940:	
  7578  0ED7                     l2949:	
  7579  0ED7  01AD               	clrf	___lldiv@counter
  7580  0ED8  0AAD               	incf	___lldiv@counter,f
  7581  0ED9  2EE7               	goto	l2953
  7582  0EDA                     l2951:	
  7583  0EDA  3001               	movlw	1
  7584  0EDB  00A8               	movwf	??___lldiv
  7585  0EDC                     u2955:	
  7586  0EDC  1003               	clrc
  7587  0EDD  0DA0               	rlf	___lldiv@divisor,f
  7588  0EDE  0DA1               	rlf	___lldiv@divisor+1,f
  7589  0EDF  0DA2               	rlf	___lldiv@divisor+2,f
  7590  0EE0  0DA3               	rlf	___lldiv@divisor+3,f
  7591  0EE1  0BA8               	decfsz	??___lldiv,f
  7592  0EE2  2EDC               	goto	u2955
  7593  0EE3  3001               	movlw	1
  7594  0EE4  00A8               	movwf	??___lldiv
  7595  0EE5  0828               	movf	??___lldiv,w
  7596  0EE6  07AD               	addwf	___lldiv@counter,f
  7597  0EE7                     l2953:	
  7598  0EE7  1FA3               	btfss	___lldiv@divisor+3,7
  7599  0EE8  2EEA               	goto	u2961
  7600  0EE9  2EEB               	goto	u2960
  7601  0EEA                     u2961:	
  7602  0EEA  2EDA               	goto	l2951
  7603  0EEB                     u2960:	
  7604  0EEB                     l2955:	
  7605  0EEB  3001               	movlw	1
  7606  0EEC  00A8               	movwf	??___lldiv
  7607  0EED                     u2975:	
  7608  0EED  1003               	clrc
  7609  0EEE  0DA9               	rlf	___lldiv@quotient,f
  7610  0EEF  0DAA               	rlf	___lldiv@quotient+1,f
  7611  0EF0  0DAB               	rlf	___lldiv@quotient+2,f
  7612  0EF1  0DAC               	rlf	___lldiv@quotient+3,f
  7613  0EF2  0BA8               	decfsz	??___lldiv,f
  7614  0EF3  2EED               	goto	u2975
  7615  0EF4                     l2957:	
  7616  0EF4  0823               	movf	___lldiv@divisor+3,w
  7617  0EF5  0227               	subwf	___lldiv@dividend+3,w
  7618  0EF6  1D03               	skipz
  7619  0EF7  2F02               	goto	u2985
  7620  0EF8  0822               	movf	___lldiv@divisor+2,w
  7621  0EF9  0226               	subwf	___lldiv@dividend+2,w
  7622  0EFA  1D03               	skipz
  7623  0EFB  2F02               	goto	u2985
  7624  0EFC  0821               	movf	___lldiv@divisor+1,w
  7625  0EFD  0225               	subwf	___lldiv@dividend+1,w
  7626  0EFE  1D03               	skipz
  7627  0EFF  2F02               	goto	u2985
  7628  0F00  0820               	movf	___lldiv@divisor,w
  7629  0F01  0224               	subwf	___lldiv@dividend,w
  7630  0F02                     u2985:	
  7631  0F02  1C03               	skipc
  7632  0F03  2F05               	goto	u2981
  7633  0F04  2F06               	goto	u2980
  7634  0F05                     u2981:	
  7635  0F05  2F15               	goto	l2963
  7636  0F06                     u2980:	
  7637  0F06                     l2959:	
  7638  0F06  0820               	movf	___lldiv@divisor,w
  7639  0F07  02A4               	subwf	___lldiv@dividend,f
  7640  0F08  0821               	movf	___lldiv@divisor+1,w
  7641  0F09  1C03               	skipc
  7642  0F0A  0F21               	incfsz	___lldiv@divisor+1,w
  7643  0F0B  02A5               	subwf	___lldiv@dividend+1,f
  7644  0F0C  0822               	movf	___lldiv@divisor+2,w
  7645  0F0D  1C03               	skipc
  7646  0F0E  0F22               	incfsz	___lldiv@divisor+2,w
  7647  0F0F  02A6               	subwf	___lldiv@dividend+2,f
  7648  0F10  0823               	movf	___lldiv@divisor+3,w
  7649  0F11  1C03               	skipc
  7650  0F12  0F23               	incfsz	___lldiv@divisor+3,w
  7651  0F13  02A7               	subwf	___lldiv@dividend+3,f
  7652  0F14                     l2961:	
  7653  0F14  1429               	bsf	___lldiv@quotient,0
  7654  0F15                     l2963:	
  7655  0F15  3001               	movlw	1
  7656  0F16                     u2995:	
  7657  0F16  1003               	clrc
  7658  0F17  0CA3               	rrf	___lldiv@divisor+3,f
  7659  0F18  0CA2               	rrf	___lldiv@divisor+2,f
  7660  0F19  0CA1               	rrf	___lldiv@divisor+1,f
  7661  0F1A  0CA0               	rrf	___lldiv@divisor,f
  7662  0F1B  3EFF               	addlw	-1
  7663  0F1C  1D03               	skipz
  7664  0F1D  2F16               	goto	u2995
  7665  0F1E                     l2965:	
  7666  0F1E  3001               	movlw	1
  7667  0F1F  02AD               	subwf	___lldiv@counter,f
  7668  0F20  1D03               	btfss	3,2
  7669  0F21  2F23               	goto	u3001
  7670  0F22  2F24               	goto	u3000
  7671  0F23                     u3001:	
  7672  0F23  2EEB               	goto	l2955
  7673  0F24                     u3000:	
  7674  0F24                     l2967:	
  7675  0F24  082C               	movf	___lldiv@quotient+3,w
  7676  0F25  00A3               	movwf	?___lldiv+3
  7677  0F26  082B               	movf	___lldiv@quotient+2,w
  7678  0F27  00A2               	movwf	?___lldiv+2
  7679  0F28  082A               	movf	___lldiv@quotient+1,w
  7680  0F29  00A1               	movwf	?___lldiv+1
  7681  0F2A  0829               	movf	___lldiv@quotient,w
  7682  0F2B  00A0               	movwf	?___lldiv
  7683  0F2C                     l843:	
  7684  0F2C  0008               	return
  7685  0F2D                     __end_of___lldiv:	
  7686                           
  7687                           	psect	text48
  7688  077B                     __ptext48:	
  7689 ;; *************** function _ADC_Select_prescaler *****************
  7690 ;; Defined at:
  7691 ;;		line 178 in file "ADC.c"
  7692 ;; Parameters:    Size  Location     Type
  7693 ;;  a_ADC_presca    1    wreg     enum E20
  7694 ;; Auto vars:     Size  Location     Type
  7695 ;;  a_ADC_presca    1    2[BANK0 ] enum E20
  7696 ;; Return value:  Size  Location     Type
  7697 ;;                  1    wreg      void 
  7698 ;; Registers used:
  7699 ;;		wreg, fsr0l, fsr0h, status,2, status,0
  7700 ;; Tracked objects:
  7701 ;;		On entry : 0/0
  7702 ;;		On exit  : 0/0
  7703 ;;		Unchanged: 0/0
  7704 ;; Data sizes:     COMMON   BANK0   BANK1   BANK3   BANK2
  7705 ;;      Params:         0       0       0       0       0
  7706 ;;      Locals:         0       1       0       0       0
  7707 ;;      Temps:          0       2       0       0       0
  7708 ;;      Totals:         0       3       0       0       0
  7709 ;;Total ram usage:        3 bytes
  7710 ;; Hardware stack levels used:    1
  7711 ;; Hardware stack levels required when called:    3
  7712 ;; This function calls:
  7713 ;;		Nothing
  7714 ;; This function is called by:
  7715 ;;		_Heater_Initialization
  7716 ;; This function uses a non-reentrant model
  7717 ;;
  7718                           
  7719                           
  7720                           ;psect for function _ADC_Select_prescaler
  7721  077B                     _ADC_Select_prescaler:	
  7722                           
  7723                           ;incstack = 0
  7724                           ; Regs used in _ADC_Select_prescaler: [wreg-fsr0h+status,2+status,0]
  7725                           ;ADC_Select_prescaler@a_ADC_prescaler_t stored from wreg
  7726  077B  1283               	bcf	3,5	;RP0=0, select bank0
  7727  077C  1303               	bcf	3,6	;RP1=0, select bank0
  7728  077D  00A2               	movwf	ADC_Select_prescaler@a_ADC_prescaler_t
  7729  077E                     l3335:	
  7730                           
  7731                           ;ADC.c: 178: void ADC_Select_prescaler(EnumADC_prescaler_t a_ADC_prescaler_t);ADC.c: 179
      +                          : {;ADC.c: 181:     switch(a_ADC_prescaler_t)
  7732  077E  2FC4               	goto	l3361
  7733  077F                     l3337:	
  7734                           
  7735                           ;ADC.c: 184:             *(volatile uint8*)0x1F &= ~(1 << 6u);
  7736  077F  30BF               	movlw	191
  7737  0780  00A0               	movwf	??_ADC_Select_prescaler
  7738  0781  0820               	movf	??_ADC_Select_prescaler,w
  7739  0782  059F               	andwf	31,f	;volatile
  7740                           
  7741                           ;ADC.c: 185:             *(volatile uint8*)0x1F &= ~(1 << 7u);
  7742  0783  307F               	movlw	127
  7743  0784  00A0               	movwf	??_ADC_Select_prescaler
  7744  0785  0820               	movf	??_ADC_Select_prescaler,w
  7745  0786  059F               	andwf	31,f	;volatile
  7746                           
  7747                           ;ADC.c: 186:             *(volatile uint8*)0x9F &= ~(1 << 6u);
  7748  0787  30BF               	movlw	191
  7749  0788  00A0               	movwf	??_ADC_Select_prescaler
  7750  0789  0820               	movf	??_ADC_Select_prescaler,w
  7751  078A  1683               	bsf	3,5	;RP0=1, select bank1
  7752  078B  1303               	bcf	3,6	;RP1=0, select bank1
  7753  078C  059F               	andwf	31,f	;volatile
  7754                           
  7755                           ;ADC.c: 187:             break;
  7756  078D  2FE3               	goto	l43
  7757  078E                     l3339:	
  7758                           
  7759                           ;ADC.c: 189:             *(volatile uint8*)0x1F &= ~(1 << 6u);
  7760  078E  30BF               	movlw	191
  7761  078F  00A0               	movwf	??_ADC_Select_prescaler
  7762  0790  0820               	movf	??_ADC_Select_prescaler,w
  7763  0791  059F               	andwf	31,f	;volatile
  7764                           
  7765                           ;ADC.c: 190:             *(volatile uint8*)0x1F &= ~(1 << 7u);
  7766  0792  307F               	movlw	127
  7767  0793  00A0               	movwf	??_ADC_Select_prescaler
  7768  0794  0820               	movf	??_ADC_Select_prescaler,w
  7769  0795  059F               	andwf	31,f	;volatile
  7770  0796                     l3341:	
  7771                           
  7772                           ;ADC.c: 191:             *(volatile uint8*)0x9F |= 1 << 6u;
  7773  0796  1683               	bsf	3,5	;RP0=1, select bank1
  7774  0797  1303               	bcf	3,6	;RP1=0, select bank1
  7775  0798  171F               	bsf	31,6	;volatile
  7776                           
  7777                           ;ADC.c: 192:             break;
  7778  0799  2FE3               	goto	l43
  7779  079A                     l45:	
  7780                           ;ADC.c: 193:         case ADC_PRESCALER_8:
  7781                           
  7782                           
  7783                           ;ADC.c: 194:             *(volatile uint8*)0x1F |= 1 << 6u;
  7784  079A  171F               	bsf	31,6	;volatile
  7785  079B                     l3343:	
  7786                           
  7787                           ;ADC.c: 195:             *(volatile uint8*)0x1F &= ~(1 << 7u);
  7788  079B  307F               	movlw	127
  7789  079C  00A0               	movwf	??_ADC_Select_prescaler
  7790  079D  0820               	movf	??_ADC_Select_prescaler,w
  7791  079E  059F               	andwf	31,f	;volatile
  7792                           
  7793                           ;ADC.c: 196:             *(volatile uint8*)0x9F &= ~(1 << 6u);
  7794  079F  30BF               	movlw	191
  7795  07A0  00A0               	movwf	??_ADC_Select_prescaler
  7796  07A1  0820               	movf	??_ADC_Select_prescaler,w
  7797  07A2  1683               	bsf	3,5	;RP0=1, select bank1
  7798  07A3  1303               	bcf	3,6	;RP1=0, select bank1
  7799  07A4  059F               	andwf	31,f	;volatile
  7800                           
  7801                           ;ADC.c: 197:             break;
  7802  07A5  2FE3               	goto	l43
  7803  07A6                     l46:	
  7804                           ;ADC.c: 198:         case ADC_PRESCALER_16:
  7805                           
  7806                           
  7807                           ;ADC.c: 199:             *(volatile uint8*)0x1F |= 1 << 6u;
  7808  07A6  171F               	bsf	31,6	;volatile
  7809  07A7                     l3345:	
  7810                           
  7811                           ;ADC.c: 200:             *(volatile uint8*)0x1F &= ~(1 << 7u);
  7812  07A7  307F               	movlw	127
  7813  07A8  00A0               	movwf	??_ADC_Select_prescaler
  7814  07A9  0820               	movf	??_ADC_Select_prescaler,w
  7815  07AA  059F               	andwf	31,f	;volatile
  7816  07AB  2F96               	goto	l3341
  7817  07AC                     l3349:	
  7818                           
  7819                           ;ADC.c: 204:             *(volatile uint8*)0x1F &= ~(1 << 6u);
  7820  07AC  30BF               	movlw	191
  7821  07AD  00A0               	movwf	??_ADC_Select_prescaler
  7822  07AE  0820               	movf	??_ADC_Select_prescaler,w
  7823  07AF  059F               	andwf	31,f	;volatile
  7824  07B0                     l3351:	
  7825                           
  7826                           ;ADC.c: 205:             *(volatile uint8*)0x1F |= 1 << 7u;
  7827  07B0  179F               	bsf	31,7	;volatile
  7828                           
  7829                           ;ADC.c: 206:             *(volatile uint8*)0x9F &= ~(1 << 6u);
  7830  07B1  30BF               	movlw	191
  7831  07B2  00A0               	movwf	??_ADC_Select_prescaler
  7832  07B3  0820               	movf	??_ADC_Select_prescaler,w
  7833  07B4  1683               	bsf	3,5	;RP0=1, select bank1
  7834  07B5  1303               	bcf	3,6	;RP1=0, select bank1
  7835  07B6  059F               	andwf	31,f	;volatile
  7836                           
  7837                           ;ADC.c: 207:             break;
  7838  07B7  2FE3               	goto	l43
  7839  07B8                     l3353:	
  7840                           
  7841                           ;ADC.c: 209:             *(volatile uint8*)0x1F &= ~(1 << 6u);
  7842  07B8  30BF               	movlw	191
  7843  07B9  00A0               	movwf	??_ADC_Select_prescaler
  7844  07BA  0820               	movf	??_ADC_Select_prescaler,w
  7845  07BB  059F               	andwf	31,f	;volatile
  7846  07BC                     l3355:	
  7847                           
  7848                           ;ADC.c: 210:             *(volatile uint8*)0x1F |= 1 << 7u;
  7849  07BC  179F               	bsf	31,7	;volatile
  7850  07BD  2F96               	goto	l3341
  7851  07BE                     l49:	
  7852                           ;ADC.c: 213:         case ADC_OSCILLATOR_CLOCK:
  7853                           
  7854                           
  7855                           ;ADC.c: 214:             *(volatile uint8*)0x1F |= 1 << 6u;
  7856  07BE  171F               	bsf	31,6	;volatile
  7857                           
  7858                           ;ADC.c: 215:             *(volatile uint8*)0x1F |= 1 << 7u;
  7859  07BF  179F               	bsf	31,7	;volatile
  7860                           
  7861                           ;ADC.c: 216:             *(volatile uint8*)0x9F |= 1 << 6u;
  7862  07C0  1683               	bsf	3,5	;RP0=1, select bank1
  7863  07C1  1303               	bcf	3,6	;RP1=0, select bank1
  7864  07C2  171F               	bsf	31,6	;volatile
  7865                           
  7866                           ;ADC.c: 217:             break;
  7867  07C3  2FE3               	goto	l43
  7868  07C4                     l3361:	
  7869  07C4  0822               	movf	ADC_Select_prescaler@a_ADC_prescaler_t,w
  7870  07C5  00A0               	movwf	??_ADC_Select_prescaler
  7871  07C6  01A1               	clrf	??_ADC_Select_prescaler+1
  7872                           
  7873                           ; Switch on 2 bytes has been partitioned into a top level switch of size 1, and 1 sub-sw
      +                          itches
  7874                           ; Switch size 1, requested type "simple"
  7875                           ; Number of cases is 1, Range of values is 0 to 0
  7876                           ; switch strategies available:
  7877                           ; Name         Instructions Cycles
  7878                           ; simple_byte            4     3 (average)
  7879                           ; direct_byte           11     8 (fixed)
  7880                           ; jumptable            260     6 (fixed)
  7881                           ;	Chosen strategy is simple_byte
  7882  07C7  0821               	movf	??_ADC_Select_prescaler+1,w
  7883  07C8  3A00               	xorlw	0	; case 0
  7884  07C9  1903               	skipnz
  7885  07CA  2FCC               	goto	l4085
  7886  07CB  2FE3               	goto	l43
  7887  07CC                     l4085:	
  7888                           
  7889                           ; Switch size 1, requested type "simple"
  7890                           ; Number of cases is 7, Range of values is 0 to 6
  7891                           ; switch strategies available:
  7892                           ; Name         Instructions Cycles
  7893                           ; simple_byte           22    12 (average)
  7894                           ; direct_byte           29     8 (fixed)
  7895                           ; jumptable            260     6 (fixed)
  7896                           ;	Chosen strategy is simple_byte
  7897  07CC  0820               	movf	??_ADC_Select_prescaler,w
  7898  07CD  3A00               	xorlw	0	; case 0
  7899  07CE  1903               	skipnz
  7900  07CF  2F7F               	goto	l3337
  7901  07D0  3A01               	xorlw	1	; case 1
  7902  07D1  1903               	skipnz
  7903  07D2  2F9A               	goto	l45
  7904  07D3  3A03               	xorlw	3	; case 2
  7905  07D4  1903               	skipnz
  7906  07D5  2FAC               	goto	l3349
  7907  07D6  3A01               	xorlw	1	; case 3
  7908  07D7  1903               	skipnz
  7909  07D8  2FBE               	goto	l49
  7910  07D9  3A07               	xorlw	7	; case 4
  7911  07DA  1903               	skipnz
  7912  07DB  2F8E               	goto	l3339
  7913  07DC  3A01               	xorlw	1	; case 5
  7914  07DD  1903               	skipnz
  7915  07DE  2FA6               	goto	l46
  7916  07DF  3A03               	xorlw	3	; case 6
  7917  07E0  1903               	skipnz
  7918  07E1  2FB8               	goto	l3353
  7919  07E2  2FE3               	goto	l43
  7920  07E3                     l43:	
  7921                           
  7922                           ;ADC.c: 223:     *(volatile uint8*)0x1F |= 1 << 0u;
  7923  07E3  1283               	bcf	3,5	;RP0=0, select bank0
  7924  07E4  141F               	bsf	31,0	;volatile
  7925  07E5                     l51:	
  7926  07E5  0008               	return
  7927  07E6                     __end_of_ADC_Select_prescaler:	
  7928                           
  7929                           	psect	text49
  7930  0150                     __ptext49:	
  7931 ;; *************** function _ADC_Initialization *****************
  7932 ;; Defined at:
  7933 ;;		line 38 in file "ADC.c"
  7934 ;; Parameters:    Size  Location     Type
  7935 ;;  a_ADC_channe    1    wreg     enum E10
  7936 ;;  a_ADC_Vref_h    1    0[BANK0 ] enum E33
  7937 ;;  a_ADC_Vref_l    1    1[BANK0 ] enum E33
  7938 ;; Auto vars:     Size  Location     Type
  7939 ;;  a_ADC_channe    1    4[BANK0 ] enum E10
  7940 ;; Return value:  Size  Location     Type
  7941 ;;                  1    wreg      void 
  7942 ;; Registers used:
  7943 ;;		wreg, fsr0l, fsr0h, status,2, status,0
  7944 ;; Tracked objects:
  7945 ;;		On entry : 0/0
  7946 ;;		On exit  : 0/0
  7947 ;;		Unchanged: 0/0
  7948 ;; Data sizes:     COMMON   BANK0   BANK1   BANK3   BANK2
  7949 ;;      Params:         0       2       0       0       0
  7950 ;;      Locals:         0       1       0       0       0
  7951 ;;      Temps:          0       2       0       0       0
  7952 ;;      Totals:         0       5       0       0       0
  7953 ;;Total ram usage:        5 bytes
  7954 ;; Hardware stack levels used:    1
  7955 ;; Hardware stack levels required when called:    3
  7956 ;; This function calls:
  7957 ;;		Nothing
  7958 ;; This function is called by:
  7959 ;;		_Heater_Initialization
  7960 ;; This function uses a non-reentrant model
  7961 ;;
  7962                           
  7963                           
  7964                           ;psect for function _ADC_Initialization
  7965  0150                     _ADC_Initialization:	
  7966                           
  7967                           ;incstack = 0
  7968                           ; Regs used in _ADC_Initialization: [wreg-fsr0h+status,2+status,0]
  7969                           ;ADC_Initialization@a_ADC_channel_t stored from wreg
  7970  0150  1283               	bcf	3,5	;RP0=0, select bank0
  7971  0151  1303               	bcf	3,6	;RP1=0, select bank0
  7972  0152  00A4               	movwf	ADC_Initialization@a_ADC_channel_t
  7973  0153                     l3259:	
  7974                           
  7975                           ;ADC.c: 38: extern void ADC_Initialization(EnumADC_channels_t a_ADC_channel_t ,;ADC.c: 3
      +                          9:                                EnumADC_Vref_value_t a_ADC_Vref_high_t ,;ADC.c: 40:   
      +                                                       EnumADC_Vref_value_t a_ADC_Vref_low_t);ADC.c: 41: {;ADC.c: 
      +                          43:     *(volatile uint8*)0x1F &= 0xC7;
  7976  0153  30C7               	movlw	199
  7977  0154  00A2               	movwf	??_ADC_Initialization
  7978  0155  0822               	movf	??_ADC_Initialization,w
  7979  0156  059F               	andwf	31,f	;volatile
  7980                           
  7981                           ;ADC.c: 45:     *(volatile uint8*)0x1F |= a_ADC_channel_t << 3;
  7982  0157  0824               	movf	ADC_Initialization@a_ADC_channel_t,w
  7983  0158  00A2               	movwf	??_ADC_Initialization
  7984  0159  3002               	movlw	2
  7985  015A                     u3645:	
  7986  015A  1003               	clrc
  7987  015B  0DA2               	rlf	??_ADC_Initialization,f
  7988  015C  3EFF               	addlw	-1
  7989  015D  1D03               	skipz
  7990  015E  295A               	goto	u3645
  7991  015F  1003               	clrc
  7992  0160  0D22               	rlf	??_ADC_Initialization,w
  7993  0161  00A3               	movwf	??_ADC_Initialization+1
  7994  0162  0823               	movf	??_ADC_Initialization+1,w
  7995  0163  049F               	iorwf	31,f	;volatile
  7996                           
  7997                           ;ADC.c: 48:     *(volatile uint8*)0x9F &= 0xF0;
  7998  0164  30F0               	movlw	240
  7999  0165  00A2               	movwf	??_ADC_Initialization
  8000  0166  0822               	movf	??_ADC_Initialization,w
  8001  0167  1683               	bsf	3,5	;RP0=1, select bank1
  8002  0168  1303               	bcf	3,6	;RP1=0, select bank1
  8003  0169  059F               	andwf	31,f	;volatile
  8004                           
  8005                           ;ADC.c: 49:     switch(a_ADC_channel_t)
  8006  016A  2A32               	goto	l3329
  8007  016B                     l3261:	
  8008                           
  8009                           ;ADC.c: 53:             if(a_ADC_Vref_high_t == ADC_V_REF_INPUT_PIN)
  8010  016B  0820               	movf	ADC_Initialization@a_ADC_Vref_high_t,w
  8011  016C  1D03               	btfss	3,2
  8012  016D  296F               	goto	u3651
  8013  016E  2970               	goto	u3650
  8014  016F                     u3651:	
  8015  016F  2977               	goto	l3265
  8016  0170                     u3650:	
  8017  0170                     l3263:	
  8018                           
  8019                           ;ADC.c: 54:             {;ADC.c: 55:                 *(volatile uint8*)0x9F |= 0x0F;
  8020  0170  300F               	movlw	15
  8021  0171  00A2               	movwf	??_ADC_Initialization
  8022  0172  0822               	movf	??_ADC_Initialization,w
  8023  0173  1683               	bsf	3,5	;RP0=1, select bank1
  8024  0174  1303               	bcf	3,6	;RP1=0, select bank1
  8025  0175  049F               	iorwf	31,f	;volatile
  8026                           
  8027                           ;ADC.c: 56:             }
  8028  0176  297D               	goto	l3267
  8029  0177                     l3265:	
  8030                           
  8031                           ;ADC.c: 58:             {;ADC.c: 59:                 *(volatile uint8*)0x9F |= 0x0E;
  8032  0177  300E               	movlw	14
  8033  0178  00A2               	movwf	??_ADC_Initialization
  8034  0179  0822               	movf	??_ADC_Initialization,w
  8035  017A  1683               	bsf	3,5	;RP0=1, select bank1
  8036  017B  1303               	bcf	3,6	;RP1=0, select bank1
  8037  017C  049F               	iorwf	31,f	;volatile
  8038  017D                     l3267:	
  8039                           
  8040                           ;ADC.c: 61:             *(volatile uint8*)0x85 |= 1 << 0u;
  8041  017D  1405               	bsf	5,0	;volatile
  8042                           
  8043                           ;ADC.c: 62:             break;
  8044  017E  2A56               	goto	l38
  8045  017F                     l3269:	
  8046                           
  8047                           ;ADC.c: 65:             if(a_ADC_Vref_high_t == ADC_V_REF_INPUT_PIN && a_ADC_Vref_low_t 
      +                          == ADC_V_REF_INPUT_PIN)
  8048  017F  0820               	movf	ADC_Initialization@a_ADC_Vref_high_t,w
  8049  0180  1D03               	btfss	3,2
  8050  0181  2983               	goto	u3661
  8051  0182  2984               	goto	u3660
  8052  0183                     u3661:	
  8053  0183  2990               	goto	l3275
  8054  0184                     u3660:	
  8055  0184                     l3271:	
  8056  0184  0821               	movf	ADC_Initialization@a_ADC_Vref_low_t,w
  8057  0185  1D03               	btfss	3,2
  8058  0186  2988               	goto	u3671
  8059  0187  2989               	goto	u3670
  8060  0188                     u3671:	
  8061  0188  2990               	goto	l3275
  8062  0189                     u3670:	
  8063  0189                     l3273:	
  8064                           
  8065                           ;ADC.c: 66:             {;ADC.c: 67:                 *(volatile uint8*)0x9F |= 0x0D;
  8066  0189  300D               	movlw	13
  8067  018A  00A2               	movwf	??_ADC_Initialization
  8068  018B  0822               	movf	??_ADC_Initialization,w
  8069  018C  1683               	bsf	3,5	;RP0=1, select bank1
  8070  018D  1303               	bcf	3,6	;RP1=0, select bank1
  8071  018E  049F               	iorwf	31,f	;volatile
  8072                           
  8073                           ;ADC.c: 68:             }
  8074  018F  299F               	goto	l10
  8075  0190                     l3275:	
  8076  0190  0820               	movf	ADC_Initialization@a_ADC_Vref_high_t,w
  8077  0191  1D03               	btfss	3,2
  8078  0192  2994               	goto	u3681
  8079  0193  2995               	goto	u3680
  8080  0194                     u3681:	
  8081  0194  299C               	goto	l11
  8082  0195                     u3680:	
  8083  0195                     l3277:	
  8084                           
  8085                           ;ADC.c: 70:             {;ADC.c: 71:                 *(volatile uint8*)0x9F |= 0x05;
  8086  0195  3005               	movlw	5
  8087  0196  00A2               	movwf	??_ADC_Initialization
  8088  0197  0822               	movf	??_ADC_Initialization,w
  8089  0198  1683               	bsf	3,5	;RP0=1, select bank1
  8090  0199  1303               	bcf	3,6	;RP1=0, select bank1
  8091  019A  049F               	iorwf	31,f	;volatile
  8092                           
  8093                           ;ADC.c: 72:             }
  8094  019B  299F               	goto	l10
  8095  019C                     l11:	
  8096                           ;ADC.c: 73:             else
  8097                           
  8098                           
  8099                           ;ADC.c: 74:             {;ADC.c: 75:                 *(volatile uint8*)0x9F |= 0x04;
  8100  019C  1683               	bsf	3,5	;RP0=1, select bank1
  8101  019D  1303               	bcf	3,6	;RP1=0, select bank1
  8102  019E  151F               	bsf	31,2	;volatile
  8103  019F                     l10:	
  8104                           
  8105                           ;ADC.c: 77:             *(volatile uint8*)0x85 |= 1 << 1u;
  8106  019F  1485               	bsf	5,1	;volatile
  8107                           
  8108                           ;ADC.c: 78:             break;
  8109  01A0  2A56               	goto	l38
  8110  01A1                     l3279:	
  8111                           
  8112                           ;ADC.c: 81:             if(a_ADC_Vref_high_t == ADC_V_REF_INPUT_PIN)
  8113  01A1  0820               	movf	ADC_Initialization@a_ADC_Vref_high_t,w
  8114  01A2  1D03               	btfss	3,2
  8115  01A3  29A5               	goto	u3691
  8116  01A4  29A6               	goto	u3690
  8117  01A5                     u3691:	
  8118  01A5  29AD               	goto	l14
  8119  01A6                     u3690:	
  8120  01A6                     l3281:	
  8121                           
  8122                           ;ADC.c: 82:             {;ADC.c: 83:                 *(volatile uint8*)0x9F |= 0x03;
  8123  01A6  3003               	movlw	3
  8124  01A7  00A2               	movwf	??_ADC_Initialization
  8125  01A8  0822               	movf	??_ADC_Initialization,w
  8126  01A9  1683               	bsf	3,5	;RP0=1, select bank1
  8127  01AA  1303               	bcf	3,6	;RP1=0, select bank1
  8128  01AB  049F               	iorwf	31,f	;volatile
  8129                           
  8130                           ;ADC.c: 84:             }
  8131  01AC  29B0               	goto	l15
  8132  01AD                     l14:	
  8133                           ;ADC.c: 85:             else
  8134                           
  8135                           
  8136                           ;ADC.c: 86:             {;ADC.c: 87:                 *(volatile uint8*)0x9F |= 0x02;
  8137  01AD  1683               	bsf	3,5	;RP0=1, select bank1
  8138  01AE  1303               	bcf	3,6	;RP1=0, select bank1
  8139  01AF  149F               	bsf	31,1	;volatile
  8140  01B0                     l15:	
  8141                           ;ADC.c: 88:             }
  8142                           
  8143                           
  8144                           ;ADC.c: 89:             *(volatile uint8*)0x85 |= 1 << 2u;
  8145  01B0  1505               	bsf	5,2	;volatile
  8146                           
  8147                           ;ADC.c: 90:             break;
  8148  01B1  2A56               	goto	l38
  8149  01B2                     l16:	
  8150                           ;ADC.c: 91:         case ADC_CHANNEL_3:
  8151                           
  8152                           
  8153                           ;ADC.c: 92:             *(volatile uint8*)0x9F |= 0x04;
  8154  01B2  1683               	bsf	3,5	;RP0=1, select bank1
  8155  01B3  1303               	bcf	3,6	;RP1=0, select bank1
  8156  01B4  151F               	bsf	31,2	;volatile
  8157                           
  8158                           ;ADC.c: 93:             *(volatile uint8*)0x85 |= 1 << 3u;
  8159  01B5  1585               	bsf	5,3	;volatile
  8160                           
  8161                           ;ADC.c: 94:             break;
  8162  01B6  2A56               	goto	l38
  8163  01B7                     l3283:	
  8164                           
  8165                           ;ADC.c: 97:             if(a_ADC_Vref_high_t == ADC_V_REF_INPUT_PIN && a_ADC_Vref_low_t 
      +                          == ADC_V_REF_INPUT_PIN)
  8166  01B7  0820               	movf	ADC_Initialization@a_ADC_Vref_high_t,w
  8167  01B8  1D03               	btfss	3,2
  8168  01B9  29BB               	goto	u3701
  8169  01BA  29BC               	goto	u3700
  8170  01BB                     u3701:	
  8171  01BB  29C8               	goto	l3289
  8172  01BC                     u3700:	
  8173  01BC                     l3285:	
  8174  01BC  0821               	movf	ADC_Initialization@a_ADC_Vref_low_t,w
  8175  01BD  1D03               	btfss	3,2
  8176  01BE  29C0               	goto	u3711
  8177  01BF  29C1               	goto	u3710
  8178  01C0                     u3711:	
  8179  01C0  29C8               	goto	l3289
  8180  01C1                     u3710:	
  8181  01C1                     l3287:	
  8182                           
  8183                           ;ADC.c: 98:             {;ADC.c: 99:                 *(volatile uint8*)0x9F |= 0x0C;
  8184  01C1  300C               	movlw	12
  8185  01C2  00A2               	movwf	??_ADC_Initialization
  8186  01C3  0822               	movf	??_ADC_Initialization,w
  8187  01C4  1683               	bsf	3,5	;RP0=1, select bank1
  8188  01C5  1303               	bcf	3,6	;RP1=0, select bank1
  8189  01C6  049F               	iorwf	31,f	;volatile
  8190                           
  8191                           ;ADC.c: 100:             }
  8192  01C7  29D7               	goto	l19
  8193  01C8                     l3289:	
  8194  01C8  0820               	movf	ADC_Initialization@a_ADC_Vref_high_t,w
  8195  01C9  1D03               	btfss	3,2
  8196  01CA  29CC               	goto	u3721
  8197  01CB  29CD               	goto	u3720
  8198  01CC                     u3721:	
  8199  01CC  29D4               	goto	l20
  8200  01CD                     u3720:	
  8201  01CD                     l3291:	
  8202                           
  8203                           ;ADC.c: 102:             {;ADC.c: 103:                 *(volatile uint8*)0x9F |= 0x03;
  8204  01CD  3003               	movlw	3
  8205  01CE  00A2               	movwf	??_ADC_Initialization
  8206  01CF  0822               	movf	??_ADC_Initialization,w
  8207  01D0  1683               	bsf	3,5	;RP0=1, select bank1
  8208  01D1  1303               	bcf	3,6	;RP1=0, select bank1
  8209  01D2  049F               	iorwf	31,f	;volatile
  8210                           
  8211                           ;ADC.c: 104:             }
  8212  01D3  29D7               	goto	l19
  8213  01D4                     l20:	
  8214                           ;ADC.c: 105:             else
  8215                           
  8216                           
  8217                           ;ADC.c: 106:             {;ADC.c: 107:                 *(volatile uint8*)0x9F |= 0x02;
  8218  01D4  1683               	bsf	3,5	;RP0=1, select bank1
  8219  01D5  1303               	bcf	3,6	;RP1=0, select bank1
  8220  01D6  149F               	bsf	31,1	;volatile
  8221  01D7                     l19:	
  8222                           
  8223                           ;ADC.c: 109:             *(volatile uint8*)0x85 |= 1 << 5u;
  8224  01D7  1685               	bsf	5,5	;volatile
  8225                           
  8226                           ;ADC.c: 110:             break;
  8227  01D8  2A56               	goto	l38
  8228  01D9                     l3293:	
  8229                           
  8230                           ;ADC.c: 113:             if(a_ADC_Vref_high_t == ADC_V_REF_INPUT_PIN && a_ADC_Vref_low_t
      +                           == ADC_V_REF_INPUT_PIN)
  8231  01D9  0820               	movf	ADC_Initialization@a_ADC_Vref_high_t,w
  8232  01DA  1D03               	btfss	3,2
  8233  01DB  29DD               	goto	u3731
  8234  01DC  29DE               	goto	u3730
  8235  01DD                     u3731:	
  8236  01DD  29EA               	goto	l3299
  8237  01DE                     u3730:	
  8238  01DE                     l3295:	
  8239  01DE  0821               	movf	ADC_Initialization@a_ADC_Vref_low_t,w
  8240  01DF  1D03               	btfss	3,2
  8241  01E0  29E2               	goto	u3741
  8242  01E1  29E3               	goto	u3740
  8243  01E2                     u3741:	
  8244  01E2  29EA               	goto	l3299
  8245  01E3                     u3740:	
  8246  01E3                     l3297:	
  8247                           
  8248                           ;ADC.c: 114:             {;ADC.c: 115:                 *(volatile uint8*)0x9F |= 0x0B;
  8249  01E3  300B               	movlw	11
  8250  01E4  00A2               	movwf	??_ADC_Initialization
  8251  01E5  0822               	movf	??_ADC_Initialization,w
  8252  01E6  1683               	bsf	3,5	;RP0=1, select bank1
  8253  01E7  1303               	bcf	3,6	;RP1=0, select bank1
  8254  01E8  049F               	iorwf	31,f	;volatile
  8255                           
  8256                           ;ADC.c: 116:             }
  8257  01E9  29FC               	goto	l3305
  8258  01EA                     l3299:	
  8259  01EA  0820               	movf	ADC_Initialization@a_ADC_Vref_high_t,w
  8260  01EB  1D03               	btfss	3,2
  8261  01EC  29EE               	goto	u3751
  8262  01ED  29EF               	goto	u3750
  8263  01EE                     u3751:	
  8264  01EE  29F6               	goto	l3303
  8265  01EF                     u3750:	
  8266  01EF                     l3301:	
  8267                           
  8268                           ;ADC.c: 118:             {;ADC.c: 119:                 *(volatile uint8*)0x9F |= 0x0A;
  8269  01EF  300A               	movlw	10
  8270  01F0  00A2               	movwf	??_ADC_Initialization
  8271  01F1  0822               	movf	??_ADC_Initialization,w
  8272  01F2  1683               	bsf	3,5	;RP0=1, select bank1
  8273  01F3  1303               	bcf	3,6	;RP1=0, select bank1
  8274  01F4  049F               	iorwf	31,f	;volatile
  8275                           
  8276                           ;ADC.c: 120:             }
  8277  01F5  29FC               	goto	l3305
  8278  01F6                     l3303:	
  8279                           
  8280                           ;ADC.c: 122:             {;ADC.c: 123:                 *(volatile uint8*)0x9F |= 0x09;
  8281  01F6  3009               	movlw	9
  8282  01F7  00A2               	movwf	??_ADC_Initialization
  8283  01F8  0822               	movf	??_ADC_Initialization,w
  8284  01F9  1683               	bsf	3,5	;RP0=1, select bank1
  8285  01FA  1303               	bcf	3,6	;RP1=0, select bank1
  8286  01FB  049F               	iorwf	31,f	;volatile
  8287  01FC                     l3305:	
  8288                           
  8289                           ;ADC.c: 125:             *(volatile uint8*)0x89 |= 1 << 0u;
  8290  01FC  1409               	bsf	9,0	;volatile
  8291                           
  8292                           ;ADC.c: 126:             break;
  8293  01FD  2A56               	goto	l38
  8294  01FE                     l3307:	
  8295                           
  8296                           ;ADC.c: 129:             if(a_ADC_Vref_high_t == ADC_V_REF_INPUT_PIN && a_ADC_Vref_low_t
      +                           == ADC_V_REF_INPUT_PIN)
  8297  01FE  0820               	movf	ADC_Initialization@a_ADC_Vref_high_t,w
  8298  01FF  1D03               	btfss	3,2
  8299  0200  2A02               	goto	u3761
  8300  0201  2A03               	goto	u3760
  8301  0202                     u3761:	
  8302  0202  2A0C               	goto	l3313
  8303  0203                     u3760:	
  8304  0203                     l3309:	
  8305  0203  0821               	movf	ADC_Initialization@a_ADC_Vref_low_t,w
  8306  0204  1D03               	btfss	3,2
  8307  0205  2A07               	goto	u3771
  8308  0206  2A08               	goto	u3770
  8309  0207                     u3771:	
  8310  0207  2A0C               	goto	l3313
  8311  0208                     u3770:	
  8312  0208                     l3311:	
  8313                           
  8314                           ;ADC.c: 130:             {;ADC.c: 131:                 *(volatile uint8*)0x9F |= 0x08;
  8315  0208  1683               	bsf	3,5	;RP0=1, select bank1
  8316  0209  1303               	bcf	3,6	;RP1=0, select bank1
  8317  020A  159F               	bsf	31,3	;volatile
  8318                           
  8319                           ;ADC.c: 132:             }
  8320  020B  2A14               	goto	l29
  8321  020C                     l3313:	
  8322  020C  0820               	movf	ADC_Initialization@a_ADC_Vref_high_t,w
  8323  020D  1D03               	btfss	3,2
  8324  020E  2A10               	goto	u3781
  8325  020F  2A11               	goto	u3780
  8326  0210                     u3781:	
  8327  0210  2A14               	goto	l29
  8328  0211                     u3780:	
  8329  0211                     l3315:	
  8330                           
  8331                           ;ADC.c: 134:             {;ADC.c: 135:                 *(volatile uint8*)0x9F |= 0x01;
  8332  0211  1683               	bsf	3,5	;RP0=1, select bank1
  8333  0212  1303               	bcf	3,6	;RP1=0, select bank1
  8334  0213  141F               	bsf	31,0	;volatile
  8335  0214                     l29:	
  8336                           ;ADC.c: 136:             }
  8337                           
  8338                           
  8339                           ;ADC.c: 141:             *(volatile uint8*)0x89 |= 1 << 1u;
  8340  0214  1683               	bsf	3,5	;RP0=1, select bank1
  8341  0215  1303               	bcf	3,6	;RP1=0, select bank1
  8342  0216  1489               	bsf	9,1	;volatile
  8343                           
  8344                           ;ADC.c: 142:             break;
  8345  0217  2A56               	goto	l38
  8346  0218                     l3317:	
  8347                           
  8348                           ;ADC.c: 145:             if(a_ADC_Vref_high_t == ADC_V_REF_INPUT_PIN && a_ADC_Vref_low_t
      +                           == ADC_V_REF_INPUT_PIN)
  8349  0218  0820               	movf	ADC_Initialization@a_ADC_Vref_high_t,w
  8350  0219  1D03               	btfss	3,2
  8351  021A  2A1C               	goto	u3791
  8352  021B  2A1D               	goto	u3790
  8353  021C                     u3791:	
  8354  021C  2A26               	goto	l3323
  8355  021D                     u3790:	
  8356  021D                     l3319:	
  8357  021D  0821               	movf	ADC_Initialization@a_ADC_Vref_low_t,w
  8358  021E  1D03               	btfss	3,2
  8359  021F  2A21               	goto	u3801
  8360  0220  2A22               	goto	u3800
  8361  0221                     u3801:	
  8362  0221  2A26               	goto	l3323
  8363  0222                     u3800:	
  8364  0222                     l3321:	
  8365                           
  8366                           ;ADC.c: 146:             {;ADC.c: 147:                 *(volatile uint8*)0x9F |= 0x08;
  8367  0222  1683               	bsf	3,5	;RP0=1, select bank1
  8368  0223  1303               	bcf	3,6	;RP1=0, select bank1
  8369  0224  159F               	bsf	31,3	;volatile
  8370                           
  8371                           ;ADC.c: 148:             }
  8372  0225  2A2E               	goto	l34
  8373  0226                     l3323:	
  8374  0226  0820               	movf	ADC_Initialization@a_ADC_Vref_high_t,w
  8375  0227  1D03               	btfss	3,2
  8376  0228  2A2A               	goto	u3811
  8377  0229  2A2B               	goto	u3810
  8378  022A                     u3811:	
  8379  022A  2A2E               	goto	l34
  8380  022B                     u3810:	
  8381  022B                     l3325:	
  8382                           
  8383                           ;ADC.c: 150:             {;ADC.c: 151:                 *(volatile uint8*)0x9F |= 0x01;
  8384  022B  1683               	bsf	3,5	;RP0=1, select bank1
  8385  022C  1303               	bcf	3,6	;RP1=0, select bank1
  8386  022D  141F               	bsf	31,0	;volatile
  8387  022E                     l34:	
  8388                           ;ADC.c: 152:             }
  8389                           
  8390                           
  8391                           ;ADC.c: 157:             *(volatile uint8*)0x89 |= 1 << 2u;
  8392  022E  1683               	bsf	3,5	;RP0=1, select bank1
  8393  022F  1303               	bcf	3,6	;RP1=0, select bank1
  8394  0230  1509               	bsf	9,2	;volatile
  8395                           
  8396                           ;ADC.c: 158:             break;
  8397  0231  2A56               	goto	l38
  8398  0232                     l3329:	
  8399  0232  1283               	bcf	3,5	;RP0=0, select bank0
  8400  0233  1303               	bcf	3,6	;RP1=0, select bank0
  8401  0234  0824               	movf	ADC_Initialization@a_ADC_channel_t,w
  8402  0235  00A2               	movwf	??_ADC_Initialization
  8403  0236  01A3               	clrf	??_ADC_Initialization+1
  8404                           
  8405                           ; Switch on 2 bytes has been partitioned into a top level switch of size 1, and 1 sub-sw
      +                          itches
  8406                           ; Switch size 1, requested type "simple"
  8407                           ; Number of cases is 1, Range of values is 0 to 0
  8408                           ; switch strategies available:
  8409                           ; Name         Instructions Cycles
  8410                           ; simple_byte            4     3 (average)
  8411                           ; direct_byte           11     8 (fixed)
  8412                           ; jumptable            260     6 (fixed)
  8413                           ;	Chosen strategy is simple_byte
  8414  0237  0823               	movf	??_ADC_Initialization+1,w
  8415  0238  3A00               	xorlw	0	; case 0
  8416  0239  1903               	skipnz
  8417  023A  2A3C               	goto	l4087
  8418  023B  2A56               	goto	l38
  8419  023C                     l4087:	
  8420                           
  8421                           ; Switch size 1, requested type "simple"
  8422                           ; Number of cases is 8, Range of values is 0 to 7
  8423                           ; switch strategies available:
  8424                           ; Name         Instructions Cycles
  8425                           ; simple_byte           25    13 (average)
  8426                           ; direct_byte           32     8 (fixed)
  8427                           ; jumptable            260     6 (fixed)
  8428                           ;	Chosen strategy is simple_byte
  8429  023C  0822               	movf	??_ADC_Initialization,w
  8430  023D  3A00               	xorlw	0	; case 0
  8431  023E  1903               	skipnz
  8432  023F  296B               	goto	l3261
  8433  0240  3A01               	xorlw	1	; case 1
  8434  0241  1903               	skipnz
  8435  0242  297F               	goto	l3269
  8436  0243  3A03               	xorlw	3	; case 2
  8437  0244  1903               	skipnz
  8438  0245  29A1               	goto	l3279
  8439  0246  3A01               	xorlw	1	; case 3
  8440  0247  1903               	skipnz
  8441  0248  29B2               	goto	l16
  8442  0249  3A07               	xorlw	7	; case 4
  8443  024A  1903               	skipnz
  8444  024B  29B7               	goto	l3283
  8445  024C  3A01               	xorlw	1	; case 5
  8446  024D  1903               	skipnz
  8447  024E  29D9               	goto	l3293
  8448  024F  3A03               	xorlw	3	; case 6
  8449  0250  1903               	skipnz
  8450  0251  29FE               	goto	l3307
  8451  0252  3A01               	xorlw	1	; case 7
  8452  0253  1903               	skipnz
  8453  0254  2A18               	goto	l3317
  8454  0255  2A56               	goto	l38
  8455  0256                     l38:	
  8456  0256  0008               	return
  8457  0257                     __end_of_ADC_Initialization:	
  8458                           
  8459                           	psect	text50
  8460  0829                     __ptext50:	
  8461 ;; *************** function _CPU_sleep *****************
  8462 ;; Defined at:
  8463 ;;		line 39 in file "CPU_sleep.c"
  8464 ;; Parameters:    Size  Location     Type
  8465 ;;		None
  8466 ;; Auto vars:     Size  Location     Type
  8467 ;;		None
  8468 ;; Return value:  Size  Location     Type
  8469 ;;                  1    wreg      void 
  8470 ;; Registers used:
  8471 ;;		None
  8472 ;; Tracked objects:
  8473 ;;		On entry : 0/0
  8474 ;;		On exit  : 0/0
  8475 ;;		Unchanged: 0/0
  8476 ;; Data sizes:     COMMON   BANK0   BANK1   BANK3   BANK2
  8477 ;;      Params:         0       0       0       0       0
  8478 ;;      Locals:         0       0       0       0       0
  8479 ;;      Temps:          0       0       0       0       0
  8480 ;;      Totals:         0       0       0       0       0
  8481 ;;Total ram usage:        0 bytes
  8482 ;; Hardware stack levels used:    1
  8483 ;; Hardware stack levels required when called:    3
  8484 ;; This function calls:
  8485 ;;		Nothing
  8486 ;; This function is called by:
  8487 ;;		_main
  8488 ;; This function uses a non-reentrant model
  8489 ;;
  8490                           
  8491                           
  8492                           ;psect for function _CPU_sleep
  8493  0829                     _CPU_sleep:	
  8494  0829                     l3557:	
  8495                           ;incstack = 0
  8496                           ; Regs used in _CPU_sleep: []
  8497                           
  8498  0829  0063               	sleep	;# 
  8499  082A                     l76:	
  8500  082A  0008               	return
  8501  082B                     __end_of_CPU_sleep:	
  8502                           
  8503                           	psect	text51
  8504  09B7                     __ptext51:	
  8505 ;; *************** function _ISR *****************
  8506 ;; Defined at:
  8507 ;;		line 985 in file "interrupt.c"
  8508 ;; Parameters:    Size  Location     Type
  8509 ;;		None
  8510 ;; Auto vars:     Size  Location     Type
  8511 ;;		None
  8512 ;; Return value:  Size  Location     Type
  8513 ;;                  1    wreg      void 
  8514 ;; Registers used:
  8515 ;;		wreg, fsr0l, fsr0h, status,2, status,0, pclath, cstack
  8516 ;; Tracked objects:
  8517 ;;		On entry : 0/0
  8518 ;;		On exit  : 0/0
  8519 ;;		Unchanged: 0/0
  8520 ;; Data sizes:     COMMON   BANK0   BANK1   BANK3   BANK2
  8521 ;;      Params:         0       0       0       0       0
  8522 ;;      Locals:         0       0       0       0       0
  8523 ;;      Temps:          5       0       0       0       0
  8524 ;;      Totals:         5       0       0       0       0
  8525 ;;Total ram usage:        5 bytes
  8526 ;; Hardware stack levels used:    1
  8527 ;; Hardware stack levels required when called:    2
  8528 ;; This function calls:
  8529 ;;		Absolute function
  8530 ;;		_TIMER1_ISR
  8531 ;; This function is called by:
  8532 ;;		Interrupt level 1
  8533 ;; This function uses a non-reentrant model
  8534 ;;
  8535                           
  8536                           
  8537                           ;psect for function _ISR
  8538  09B7                     _ISR:	
  8539  09B7                     i1l3773:	
  8540                           
  8541                           ;interrupt.c: 1014:     if(((*(volatile uint8*)0x0C >> 0u) & 0x01))
  8542  09B7  1C0C               	btfss	12,0	;volatile
  8543  09B8  29BA               	goto	u427_21
  8544  09B9  29BB               	goto	u427_20
  8545  09BA                     u427_21:	
  8546  09BA  29CC               	goto	i1l3781
  8547  09BB                     u427_20:	
  8548  09BB                     i1l3775:	
  8549                           
  8550                           ;interrupt.c: 1015:     {;interrupt.c: 1017:         if(timer1_callback_ptr != (void*)0x
      +                          00)
  8551  09BB  087C               	movf	_timer1_callback_ptr,w
  8552  09BC  1903               	btfsc	3,2
  8553  09BD  29BF               	goto	u428_21
  8554  09BE  29C0               	goto	u428_20
  8555  09BF                     u428_21:	
  8556  09BF  29C6               	goto	i1l3779
  8557  09C0                     u428_20:	
  8558  09C0                     i1l3777:	
  8559                           
  8560                           ;interrupt.c: 1018:         {;interrupt.c: 1020:             timer1_callback_ptr();
  8561  09C0  087C               	movf	_timer1_callback_ptr,w
  8562  09C1  120A  118A  2033  120A  158A  	fcall	i1fptable
  8563  09C6                     i1l3779:	
  8564                           ;interrupt.c: 1021:         }
  8565                           
  8566                           
  8567                           ;interrupt.c: 1027:         *(volatile uint8*)0x0C &= ~(1 << 0u);
  8568  09C6  30FE               	movlw	254
  8569  09C7  00F5               	movwf	??_ISR
  8570  09C8  0875               	movf	??_ISR,w
  8571  09C9  1283               	bcf	3,5	;RP0=0, select bank0
  8572  09CA  1303               	bcf	3,6	;RP1=0, select bank0
  8573  09CB  058C               	andwf	12,f	;volatile
  8574  09CC                     i1l3781:	
  8575                           ;interrupt.c: 1028:     }
  8576                           
  8577                           
  8578                           ;interrupt.c: 1062:     if(((*(volatile uint8*)0x0B >> 1u) & 0x01))
  8579  09CC  080B               	movf	11,w	;volatile
  8580  09CD  00F5               	movwf	??_ISR
  8581  09CE  3001               	movlw	1
  8582  09CF                     u429_25:	
  8583  09CF  1003               	clrc
  8584  09D0  0CF5               	rrf	??_ISR,f
  8585  09D1  3EFF               	addlw	-1
  8586  09D2  1D03               	skipz
  8587  09D3  29CF               	goto	u429_25
  8588  09D4  1C75               	btfss	??_ISR,0
  8589  09D5  29D7               	goto	u430_21
  8590  09D6  29D8               	goto	u430_20
  8591  09D7                     u430_21:	
  8592  09D7  29DC               	goto	i1l437
  8593  09D8                     u430_20:	
  8594  09D8                     i1l3787:	
  8595                           
  8596                           ;interrupt.c: 1075:         *(volatile uint8*)0x0B &= ~(1 << 1u);
  8597  09D8  30FD               	movlw	253
  8598  09D9  00F5               	movwf	??_ISR
  8599  09DA  0875               	movf	??_ISR,w
  8600  09DB  058B               	andwf	11,f	;volatile
  8601  09DC                     i1l437:	
  8602                           ;interrupt.c: 1076:     }
  8603                           
  8604  09DC  0879               	movf	??_ISR+4,w
  8605  09DD  00FF               	movwf	btemp+1
  8606  09DE  0878               	movf	??_ISR+3,w
  8607  09DF  008A               	movwf	10
  8608  09E0  0877               	movf	??_ISR+2,w
  8609  09E1  0084               	movwf	4
  8610  09E2  0E76               	swapf	(??_ISR+1)^(0+4294967168),w
  8611  09E3  0083               	movwf	3
  8612  09E4  0EFE               	swapf	btemp,f
  8613  09E5  0E7E               	swapf	btemp,w
  8614  09E6  0009               	retfie
  8615  09E7                     __end_of_ISR:	
  8616                           
  8617                           	psect	intentry
  8618  0004                     __pintentry:	
  8619                           ;incstack = 0
  8620                           ; Regs used in _ISR: [wreg-fsr0h+status,2+status,0+pclath+cstack]
  8621                           
  8622  0004                     interrupt_function:	
  8623  007E                     saved_w	set	btemp
  8624  0004  00FE               	movwf	btemp
  8625  0005  0E03               	swapf	3,w
  8626  0006  00F6               	movwf	??_ISR+1
  8627  0007  0804               	movf	4,w
  8628  0008  00F7               	movwf	??_ISR+2
  8629  0009  080A               	movf	10,w
  8630  000A  00F8               	movwf	??_ISR+3
  8631  000B  1283               	bcf	3,5	;RP0=0, select bank0
  8632  000C  1303               	bcf	3,6	;RP1=0, select bank0
  8633  000D  087F               	movf	btemp+1,w
  8634  000E  00F9               	movwf	??_ISR+4
  8635  000F  120A  158A  29B7   	ljmp	_ISR
  8636                           
  8637                           	psect	text52
  8638  09E7                     __ptext52:	
  8639 ;; *************** function _TIMER1_ISR *****************
  8640 ;; Defined at:
  8641 ;;		line 134 in file "heater.c"
  8642 ;; Parameters:    Size  Location     Type
  8643 ;;		None
  8644 ;; Auto vars:     Size  Location     Type
  8645 ;;		None
  8646 ;; Return value:  Size  Location     Type
  8647 ;;                  1    wreg      void 
  8648 ;; Registers used:
  8649 ;;		wreg, fsr0l, fsr0h, status,2, status,0, pclath, cstack
  8650 ;; Tracked objects:
  8651 ;;		On entry : 0/0
  8652 ;;		On exit  : 0/0
  8653 ;;		Unchanged: 0/0
  8654 ;; Data sizes:     COMMON   BANK0   BANK1   BANK3   BANK2
  8655 ;;      Params:         0       0       0       0       0
  8656 ;;      Locals:         0       0       0       0       0
  8657 ;;      Temps:          2       0       0       0       0
  8658 ;;      Totals:         2       0       0       0       0
  8659 ;;Total ram usage:        2 bytes
  8660 ;; Hardware stack levels used:    1
  8661 ;; Hardware stack levels required when called:    1
  8662 ;; This function calls:
  8663 ;;		i1_Timer1_write_counter
  8664 ;; This function is called by:
  8665 ;;		_Heater_Initialization
  8666 ;;		_ISR
  8667 ;; This function uses a non-reentrant model
  8668 ;;
  8669                           
  8670                           
  8671                           ;psect for function _TIMER1_ISR
  8672  09E7                     _TIMER1_ISR:	
  8673  09E7                     i1l3681:	
  8674                           ;incstack = 0
  8675                           ; Regs used in _TIMER1_ISR: [wreg-fsr0h+status,2+status,0+pclath+cstack]
  8676                           
  8677                           
  8678                           ;heater.c: 137:     Timer1_write_counter(15535);
  8679  09E7  30AF               	movlw	175
  8680  09E8  00F0               	movwf	i1Timer1_write_counter@a_u16init_value_for_timer
  8681  09E9  303C               	movlw	60
  8682  09EA  00F1               	movwf	i1Timer1_write_counter@a_u16init_value_for_timer+1
  8683  09EB  120A  158A  2088  120A  158A  	fcall	i1_Timer1_write_counter
  8684                           
  8685                           ;heater.c: 139:     switch(g_Heater_state_t)
  8686  09F0  2A06               	goto	i1l3699
  8687  09F1                     i1l3683:	
  8688                           
  8689                           ;heater.c: 146:             g_u8calculate_temperature_flag = 0;
  8690  09F1  01CD               	clrf	_g_u8calculate_temperature_flag
  8691                           
  8692                           ;heater.c: 147:             break;
  8693  09F2  2A1B               	goto	i1l636
  8694  09F3                     i1l3685:	
  8695                           
  8696                           ;heater.c: 150:             g_u8calculate_temperature_flag = 0;
  8697  09F3  01CD               	clrf	_g_u8calculate_temperature_flag
  8698  09F4                     i1l3687:	
  8699                           
  8700                           ;heater.c: 152:             g_u8Display_blank_counter++;
  8701  09F4  3001               	movlw	1
  8702  09F5  00F3               	movwf	??_TIMER1_ISR
  8703  09F6  0873               	movf	??_TIMER1_ISR,w
  8704  09F7  07CA               	addwf	_g_u8Display_blank_counter,f
  8705  09F8                     i1l3689:	
  8706                           
  8707                           ;heater.c: 154:             g_u8End_setup_state++;
  8708  09F8  3001               	movlw	1
  8709  09F9  00F3               	movwf	??_TIMER1_ISR
  8710  09FA  0873               	movf	??_TIMER1_ISR,w
  8711  09FB  07FA               	addwf	_g_u8End_setup_state,f
  8712  09FC                     i1l3691:	
  8713                           
  8714                           ;heater.c: 156:             if(g_u8End_setup_state == 50)
  8715  09FC  3032               	movlw	50
  8716  09FD  067A               	xorwf	_g_u8End_setup_state,w
  8717  09FE  1D03               	btfss	3,2
  8718  09FF  2A01               	goto	u418_21
  8719  0A00  2A02               	goto	u418_20
  8720  0A01                     u418_21:	
  8721  0A01  2A1B               	goto	i1l636
  8722  0A02                     u418_20:	
  8723  0A02                     i1l3693:	
  8724                           
  8725                           ;heater.c: 157:             {;heater.c: 159:                 g_u8Display_blank_counter =
      +                           0;
  8726  0A02  01CA               	clrf	_g_u8Display_blank_counter
  8727  0A03                     i1l3695:	
  8728                           
  8729                           ;heater.c: 161:                 g_Heater_state_t = HEATER_ON_STATE;
  8730  0A03  01CF               	clrf	_g_Heater_state_t
  8731  0A04  0ACF               	incf	_g_Heater_state_t,f
  8732                           
  8733                           ;heater.c: 162:             }
  8734  0A05  2A1B               	goto	i1l636
  8735  0A06                     i1l3699:	
  8736  0A06  1283               	bcf	3,5	;RP0=0, select bank0
  8737  0A07  1303               	bcf	3,6	;RP1=0, select bank0
  8738  0A08  084F               	movf	_g_Heater_state_t,w
  8739  0A09  00F3               	movwf	??_TIMER1_ISR
  8740  0A0A  01F4               	clrf	??_TIMER1_ISR+1
  8741                           
  8742                           ; Switch on 2 bytes has been partitioned into a top level switch of size 1, and 1 sub-sw
      +                          itches
  8743                           ; Switch size 1, requested type "simple"
  8744                           ; Number of cases is 1, Range of values is 0 to 0
  8745                           ; switch strategies available:
  8746                           ; Name         Instructions Cycles
  8747                           ; simple_byte            4     3 (average)
  8748                           ; direct_byte           11     8 (fixed)
  8749                           ; jumptable            260     6 (fixed)
  8750                           ;	Chosen strategy is simple_byte
  8751  0A0B  0874               	movf	??_TIMER1_ISR+1,w
  8752  0A0C  3A00               	xorlw	0	; case 0
  8753  0A0D  1903               	skipnz
  8754  0A0E  2A10               	goto	i1l4089
  8755  0A0F  2A1B               	goto	i1l636
  8756  0A10                     i1l4089:	
  8757                           
  8758                           ; Switch size 1, requested type "simple"
  8759                           ; Number of cases is 3, Range of values is 0 to 2
  8760                           ; switch strategies available:
  8761                           ; Name         Instructions Cycles
  8762                           ; simple_byte           10     6 (average)
  8763                           ; direct_byte           17     8 (fixed)
  8764                           ; jumptable            260     6 (fixed)
  8765                           ;	Chosen strategy is simple_byte
  8766  0A10  0873               	movf	??_TIMER1_ISR,w
  8767  0A11  3A00               	xorlw	0	; case 0
  8768  0A12  1903               	skipnz
  8769  0A13  2A1B               	goto	i1l636
  8770  0A14  3A01               	xorlw	1	; case 1
  8771  0A15  1903               	skipnz
  8772  0A16  29F1               	goto	i1l3683
  8773  0A17  3A03               	xorlw	3	; case 2
  8774  0A18  1903               	skipnz
  8775  0A19  29F3               	goto	i1l3685
  8776  0A1A  2A1B               	goto	i1l636
  8777  0A1B                     i1l636:	
  8778  0A1B  0008               	return
  8779  0A1C                     __end_of_TIMER1_ISR:	
  8780                           
  8781                           	psect	text53
  8782  0888                     __ptext53:	
  8783 ;; *************** function i1_Timer1_write_counter *****************
  8784 ;; Defined at:
  8785 ;;		line 238 in file "timers.c"
  8786 ;; Parameters:    Size  Location     Type
  8787 ;;  a_u16init_va    2    0[COMMON] unsigned short 
  8788 ;; Auto vars:     Size  Location     Type
  8789 ;;		None
  8790 ;; Return value:  Size  Location     Type
  8791 ;;                  1    wreg      void 
  8792 ;; Registers used:
  8793 ;;		wreg, status,2, status,0
  8794 ;; Tracked objects:
  8795 ;;		On entry : 0/0
  8796 ;;		On exit  : 0/0
  8797 ;;		Unchanged: 0/0
  8798 ;; Data sizes:     COMMON   BANK0   BANK1   BANK3   BANK2
  8799 ;;      Params:         2       0       0       0       0
  8800 ;;      Locals:         0       0       0       0       0
  8801 ;;      Temps:          1       0       0       0       0
  8802 ;;      Totals:         3       0       0       0       0
  8803 ;;Total ram usage:        3 bytes
  8804 ;; Hardware stack levels used:    1
  8805 ;; This function calls:
  8806 ;;		Nothing
  8807 ;; This function is called by:
  8808 ;;		_TIMER1_ISR
  8809 ;; This function uses a non-reentrant model
  8810 ;;
  8811                           
  8812                           
  8813                           ;psect for function i1_Timer1_write_counter
  8814  0888                     i1_Timer1_write_counter:	
  8815  0888                     i1l3549:	
  8816                           ;incstack = 0
  8817                           ; Regs used in i1_Timer1_write_counter: [wreg+status,2+status,0]
  8818                           
  8819                           
  8820                           ;timers.c: 238: void Timer1_write_counter(uint16 a_u16init_value_for_timer);timers.c: 23
      +                          9: {;timers.c: 241:     *(volatile uint8*)0x10 &= ~(1 << 0u);
  8821  0888  30FE               	movlw	254
  8822  0889  00F2               	movwf	??i1_Timer1_write_counter
  8823  088A  0872               	movf	??i1_Timer1_write_counter,w
  8824  088B  1283               	bcf	3,5	;RP0=0, select bank0
  8825  088C  1303               	bcf	3,6	;RP1=0, select bank0
  8826  088D  0590               	andwf	16,f	;volatile
  8827  088E                     i1l3551:	
  8828                           
  8829                           ;timers.c: 243:     *(volatile uint8*)0x0F = a_u16init_value_for_timer >> 8;
  8830  088E  0871               	movf	i1Timer1_write_counter@a_u16init_value_for_timer+1,w
  8831  088F  00F2               	movwf	??i1_Timer1_write_counter
  8832  0890  0872               	movf	??i1_Timer1_write_counter,w
  8833  0891  008F               	movwf	15	;volatile
  8834  0892                     i1l3553:	
  8835                           
  8836                           ;timers.c: 245:     *(volatile uint8*)0x0E = (uint8)a_u16init_value_for_timer;
  8837  0892  0870               	movf	i1Timer1_write_counter@a_u16init_value_for_timer,w
  8838  0893  00F2               	movwf	??i1_Timer1_write_counter
  8839  0894  0872               	movf	??i1_Timer1_write_counter,w
  8840  0895  008E               	movwf	14	;volatile
  8841  0896                     i1l3555:	
  8842                           
  8843                           ;timers.c: 247:     *(volatile uint8*)0x10 |= 1 << 0u;
  8844  0896  1410               	bsf	16,0	;volatile
  8845  0897                     i1l534:	
  8846  0897  0008               	return
  8847  0898                     __end_ofi1_Timer1_write_counter:	
  8848  0002                     
  8849                           	psect	functab
  8850  0032                     __pfunctab:	
  8851  0032                     fptable:	
  8852  0032  2832               	goto	fptable	;no entries
  8853  0033                     __i1fptable:	
  8854  0033                     i1fptable:	
  8855  0033  00FF               	movwf	(btemp+1)& (0+127)
  8856  0034  3000               	movlw	high i1fptable
  8857  0035  008A               	movwf	10
  8858  0036  087F               	movf	(btemp+1)& (0+127),w
  8859  0037  0782               	addwf	2,f
  8860  0038                     i1fpbase:	
  8861  0038  2838               	goto	i1fpbase	; Call via a null pointer and you will get stuck here.
  8862  0039                     fp__TIMER1_ISR:	
  8863  0039  120A  158A  29E7   	ljmp	_TIMER1_ISR
  8864  003C                     __end_of__i1fptable:	
  8865  007E                     btemp	set	126	;btemp
  8866  007E                     wtemp0	set	126


Data Sizes:
    Strings     0
    Constant    0
    Data        15
    BSS         22
    Persistent  0
    Stack       0

Auto Spaces:
    Space          Size  Autos    Used
    COMMON           14     10      13
    BANK0            80     29      63
    BANK1            80      0       0
    BANK3            96      0       0
    BANK2            96      0       0

Pointer List with Targets:

    external_interrupt_callback_ptr	PTR FTN()void  size(1) Largest target is 1
		 -> Absolute function(), 

    Timer1_set_callback_function@a_function_ptr	PTR FTN()void  size(1) Largest target is 1
		 -> TIMER1_ISR(), 

    timer1_callback_ptr	PTR FTN()void  size(1) Largest target is 1
		 -> TIMER1_ISR(), Absolute function(), 


Critical Paths under _main in COMMON

    None.

Critical Paths under _ISR in COMMON

    _ISR->_TIMER1_ISR
    _TIMER1_ISR->i1_Timer1_write_counter

Critical Paths under _main in BANK0

    _main->_Heater_display_on_temperature
    _Heater_turn_on->_EEPROM_Read_Byte
    _EEPROM_Read_Byte->_EEPROM_Save_Byte
    _Heater_reading_last_ten_temperature_values->_ADC_Read_value
    _Heater_heating_cooling_process->___lwdiv
    _Heater_check_if_change_state_to_setup_or_off->_Heater_turn_off
    _Heater_change_temperature->_Heater_turn_off
    _Heater_turn_off->_SevenSegment_SelectChip
    _EEPROM_Save_Byte->_I2C_master_send_address
    _Check_ON_Push_Button->_GPIO_ReadFromPin
    _Heater_blank_temperature->_Heater_display_on_temperature
    _Heater_display_on_temperature->_SevenSegment_Display
    _SevenSegment_Display->___awdiv
    _Heater_display_off_temperature->_SevenSegment_SelectChip
    _SevenSegment_SelectChip->_GPIO_SetPinDirection
    _SevenSegment_SelectChip->_GPIO_WriteOnPin
    _SevenSegment_Initialization->_GPIO_SetPortDirection
    _EEPROM_Initialization->_I2C_Master_Initialization
    _I2C_Master_Initialization->___lldiv

Critical Paths under _ISR in BANK0

    None.

Critical Paths under _main in BANK1

    None.

Critical Paths under _ISR in BANK1

    None.

Critical Paths under _main in BANK3

    None.

Critical Paths under _ISR in BANK3

    None.

Critical Paths under _main in BANK2

    None.

Critical Paths under _ISR in BANK2

    None.

Call Graph Tables:

 ---------------------------------------------------------------------------------
 (Depth) Function   	        Calls       Base Space   Used Autos Params    Refs
 ---------------------------------------------------------------------------------
 (0) _main                                                 2     2      0   83965
                                             27 BANK0      2     2      0
                          _CPU_sleep
               _Check_ON_Push_Button
              _Heater_Initialization
           _Heater_blank_temperature
          _Heater_change_temperature
_Heater_check_if_change_state_to_set
      _Heater_display_on_temperature
_Heater_reading_last_ten_temperature
                     _Heater_turn_on
 ---------------------------------------------------------------------------------
 (1) _Heater_turn_on                                       5     5      0    2509
                                             12 BANK0      5     5      0
                   _EEPROM_Read_Byte
       _Peripherals_interrupt_enable
                      _Timer1_enable
               _Timer1_write_counter
 ---------------------------------------------------------------------------------
 (2) _Timer1_write_counter                                 3     1      2     170
                                              0 BANK0      3     1      2
 ---------------------------------------------------------------------------------
 (2) _Timer1_enable                                        0     0      0       0
 ---------------------------------------------------------------------------------
 (2) _Peripherals_interrupt_enable                         0     0      0       0
 ---------------------------------------------------------------------------------
 (2) _EEPROM_Read_Byte                                     4     2      2    2248
                                              8 BANK0      4     2      2
                   _EEPROM_Save_Byte
            _I2C_master_receive_data
            _I2C_master_send_address
               _I2C_master_send_data
_I2C_master_send_repeated_start_cond
    _I2C_master_send_start_condition
     _I2C_master_send_stop_condition
 ---------------------------------------------------------------------------------
 (3) _I2C_master_send_repeated_start_condition             1     1      0       0
                                              0 BANK0      1     1      0
 ---------------------------------------------------------------------------------
 (3) _I2C_master_receive_data                              3     3      0      45
                                              0 BANK0      3     3      0
 ---------------------------------------------------------------------------------
 (1) _Heater_reading_last_ten_temperature_values           7     7      0    4919
                                             11 BANK0      7     7      0
                     _ADC_Read_value
               _ADC_Start_conversion
     _Heater_heating_cooling_process
 ---------------------------------------------------------------------------------
 (2) _Heater_heating_cooling_process                       1     1      0    4714
                                              8 BANK0      1     1      0
                    _GPIO_WriteOnPin
                            ___lwdiv
 ---------------------------------------------------------------------------------
 (3) ___lwdiv                                              8     4      4     314
                                              0 BANK0      8     4      4
 ---------------------------------------------------------------------------------
 (2) _ADC_Start_conversion                                 1     1      0       0
                                              0 BANK0      1     1      0
 ---------------------------------------------------------------------------------
 (2) _ADC_Read_value                                      11     9      2      25
                                              0 BANK0     11     9      2
 ---------------------------------------------------------------------------------
 (1) _Heater_check_if_change_state_to_setup_or_off         1     1      0   19591
                                             13 BANK0      1     1      0
               _Check_ON_Push_Button
                    _GPIO_WriteOnPin
                    _Heater_turn_off
 ---------------------------------------------------------------------------------
 (1) _Heater_change_temperature                            1     1      0   15191
                                             13 BANK0      1     1      0
               _Check_ON_Push_Button
                    _Heater_turn_off
 ---------------------------------------------------------------------------------
 (2) _Heater_turn_off                                      2     2      0   14115
                                             11 BANK0      2     2      0
                   _EEPROM_Save_Byte
                    _GPIO_WriteOnPin
      _Peripherals_interrupt_disable
            _SevenSegment_SelectChip
                     _Timer1_disable
 ---------------------------------------------------------------------------------
 (3) _Timer1_disable                                       1     1      0       0
                                              0 BANK0      1     1      0
 ---------------------------------------------------------------------------------
 (3) _Peripherals_interrupt_disable                        1     1      0       0
                                              0 BANK0      1     1      0
 ---------------------------------------------------------------------------------
 (3) _EEPROM_Save_Byte                                     3     0      3    1291
                                              5 BANK0      3     0      3
            _I2C_master_send_address
               _I2C_master_send_data
    _I2C_master_send_start_condition
     _I2C_master_send_stop_condition
 ---------------------------------------------------------------------------------
 (3) _I2C_master_send_stop_condition                       1     1      0       0
                                              0 BANK0      1     1      0
 ---------------------------------------------------------------------------------
 (3) _I2C_master_send_start_condition                      1     1      0       0
                                              0 BANK0      1     1      0
 ---------------------------------------------------------------------------------
 (3) _I2C_master_send_data                                 2     2      0      44
                                              0 BANK0      2     2      0
 ---------------------------------------------------------------------------------
 (3) _I2C_master_send_address                              5     4      1     725
                                              0 BANK0      5     4      1
 ---------------------------------------------------------------------------------
 (2) _Check_ON_Push_Button                                 5     4      1    1076
                                              5 BANK0      5     4      1
                   _GPIO_ReadFromPin
 ---------------------------------------------------------------------------------
 (3) _GPIO_ReadFromPin                                     5     4      1     388
                                              0 BANK0      5     4      1
 ---------------------------------------------------------------------------------
 (1) _Heater_blank_temperature                             0     0      0   22448
     _Heater_display_off_temperature
      _Heater_display_on_temperature
 ---------------------------------------------------------------------------------
 (1) _Heater_display_on_temperature                        2     2      0   14092
                                             25 BANK0      2     2      0
               _SevenSegment_Display
            _SevenSegment_SelectChip
                            ___awdiv
                            ___awmod
 ---------------------------------------------------------------------------------
 (2) ___awmod                                              7     3      4     448
                                              0 BANK0      7     3      4
 ---------------------------------------------------------------------------------
 (2) ___awdiv                                              9     5      4     452
                                              0 BANK0      9     5      4
 ---------------------------------------------------------------------------------
 (2) _SevenSegment_Display                                16    15      1    4836
                                              9 BANK0     16    15      1
                    _GPIO_WriteOnPin
                   _GPIO_WriteOnPort
                            ___awdiv (ARG)
                            ___awmod (ARG)
 ---------------------------------------------------------------------------------
 (3) _GPIO_WriteOnPort                                     5     4      1     216
                                              0 BANK0      5     4      1
 ---------------------------------------------------------------------------------
 (2) _Heater_display_off_temperature                       0     0      0    8356
            _SevenSegment_SelectChip
 ---------------------------------------------------------------------------------
 (2) _SevenSegment_SelectChip                              5     2      3    8356
                                              6 BANK0      5     2      3
               _GPIO_SetPinDirection
                    _GPIO_WriteOnPin
 ---------------------------------------------------------------------------------
 (3) _GPIO_WriteOnPin                                      6     4      2    4400
                                              0 BANK0      6     4      2
 ---------------------------------------------------------------------------------
 (1) _Heater_Initialization                                1     1      0    4139
                                             22 BANK0      1     1      0
                 _ADC_Initialization
               _ADC_Select_prescaler
              _EEPROM_Initialization
          _External_interrupt_enable
_External_interrupt_select_falling_e
       _GPIO_Enable_Pull_Up_On_PortB
               _GPIO_SetPinDirection
            _Global_interrupt_enable
        _SevenSegment_Initialization
              _Timer1_Initialization
   _Timer1_enable_overflow_interrupt
       _Timer1_set_callback_function
 ---------------------------------------------------------------------------------
 (2) _Timer1_set_callback_function                         2     2      0      22
                                              0 BANK0      2     2      0
 ---------------------------------------------------------------------------------
 (2) _Timer1_enable_overflow_interrupt                     0     0      0       0
 ---------------------------------------------------------------------------------
 (2) _Timer1_Initialization                                2     2      0       0
                                              0 BANK0      2     2      0
 ---------------------------------------------------------------------------------
 (2) _SevenSegment_Initialization                          0     0      0     341
              _GPIO_SetPortDirection
 ---------------------------------------------------------------------------------
 (3) _GPIO_SetPortDirection                                5     4      1     341
                                              0 BANK0      5     4      1
 ---------------------------------------------------------------------------------
 (2) _Global_interrupt_enable                              0     0      0       0
 ---------------------------------------------------------------------------------
 (3) _GPIO_SetPinDirection                                 6     4      2    2728
                                              0 BANK0      6     4      2
 ---------------------------------------------------------------------------------
 (2) _GPIO_Enable_Pull_Up_On_PortB                         1     1      0       0
                                              0 BANK0      1     1      0
 ---------------------------------------------------------------------------------
 (2) _External_interrupt_select_falling_edge               1     1      0       0
                                              0 BANK0      1     1      0
 ---------------------------------------------------------------------------------
 (2) _External_interrupt_enable                            0     0      0       0
 ---------------------------------------------------------------------------------
 (2) _EEPROM_Initialization                                0     0      0     456
          _I2C_Master_Initialization
 ---------------------------------------------------------------------------------
 (3) _I2C_Master_Initialization                            8     6      2     456
                                             14 BANK0      8     6      2
                            ___lldiv
 ---------------------------------------------------------------------------------
 (4) ___lldiv                                             14     6      8     314
                                              0 BANK0     14     6      8
 ---------------------------------------------------------------------------------
 (2) _ADC_Select_prescaler                                 3     3      0      22
                                              0 BANK0      3     3      0
 ---------------------------------------------------------------------------------
 (2) _ADC_Initialization                                   5     3      2     570
                                              0 BANK0      5     3      2
 ---------------------------------------------------------------------------------
 (1) _CPU_sleep                                            0     0      0       0
 ---------------------------------------------------------------------------------
 Estimated maximum stack depth 4
 ---------------------------------------------------------------------------------
 (Depth) Function   	        Calls       Base Space   Used Autos Params    Refs
 ---------------------------------------------------------------------------------
 (5) _ISR                                                  5     5      0      70
                                              5 COMMON     5     5      0
                   Absolute function *
                         _TIMER1_ISR *
 ---------------------------------------------------------------------------------
 (6) _TIMER1_ISR                                           2     2      0      70
                                              3 COMMON     2     2      0
             i1_Timer1_write_counter
 ---------------------------------------------------------------------------------
 (7) i1_Timer1_write_counter                               3     1      2      70
                                              0 COMMON     3     1      2
 ---------------------------------------------------------------------------------
 (6) Absolute function(Fake)                               0     0      0       0
 ---------------------------------------------------------------------------------
 Estimated maximum stack depth 7
 ---------------------------------------------------------------------------------

 Call Graph Graphs:

 _main (ROOT)
   _CPU_sleep
   _Check_ON_Push_Button
     _GPIO_ReadFromPin
   _Heater_Initialization
     _ADC_Initialization
     _ADC_Select_prescaler
     _EEPROM_Initialization
       _I2C_Master_Initialization
         ___lldiv
     _External_interrupt_enable
     _External_interrupt_select_falling_edge
     _GPIO_Enable_Pull_Up_On_PortB
     _GPIO_SetPinDirection
     _Global_interrupt_enable
     _SevenSegment_Initialization
       _GPIO_SetPortDirection
     _Timer1_Initialization
     _Timer1_enable_overflow_interrupt
     _Timer1_set_callback_function
   _Heater_blank_temperature
     _Heater_display_off_temperature
       _SevenSegment_SelectChip
         _GPIO_SetPinDirection
         _GPIO_WriteOnPin
     _Heater_display_on_temperature
       _SevenSegment_Display
         _GPIO_WriteOnPin
         _GPIO_WriteOnPort
         ___awdiv (ARG)
         ___awmod (ARG)
       _SevenSegment_SelectChip
         _GPIO_SetPinDirection
         _GPIO_WriteOnPin
       ___awdiv
       ___awmod
   _Heater_change_temperature
     _Check_ON_Push_Button
       _GPIO_ReadFromPin
     _Heater_turn_off
       _EEPROM_Save_Byte
         _I2C_master_send_address
         _I2C_master_send_data
         _I2C_master_send_start_condition
         _I2C_master_send_stop_condition
       _GPIO_WriteOnPin
       _Peripherals_interrupt_disable
       _SevenSegment_SelectChip
         _GPIO_SetPinDirection
         _GPIO_WriteOnPin
       _Timer1_disable
   _Heater_check_if_change_state_to_setup_or_off
     _Check_ON_Push_Button
       _GPIO_ReadFromPin
     _GPIO_WriteOnPin
     _Heater_turn_off
       _EEPROM_Save_Byte
         _I2C_master_send_address
         _I2C_master_send_data
         _I2C_master_send_start_condition
         _I2C_master_send_stop_condition
       _GPIO_WriteOnPin
       _Peripherals_interrupt_disable
       _SevenSegment_SelectChip
         _GPIO_SetPinDirection
         _GPIO_WriteOnPin
       _Timer1_disable
   _Heater_display_on_temperature
     _SevenSegment_Display
       _GPIO_WriteOnPin
       _GPIO_WriteOnPort
       ___awdiv (ARG)
       ___awmod (ARG)
     _SevenSegment_SelectChip
       _GPIO_SetPinDirection
       _GPIO_WriteOnPin
     ___awdiv
     ___awmod
   _Heater_reading_last_ten_temperature_values
     _ADC_Read_value
     _ADC_Start_conversion
     _Heater_heating_cooling_process
       _GPIO_WriteOnPin
       ___lwdiv
   _Heater_turn_on
     _EEPROM_Read_Byte
       _EEPROM_Save_Byte
         _I2C_master_send_address
         _I2C_master_send_data
         _I2C_master_send_start_condition
         _I2C_master_send_stop_condition
       _I2C_master_receive_data
       _I2C_master_send_address
       _I2C_master_send_data
       _I2C_master_send_repeated_start_condition
       _I2C_master_send_start_condition
       _I2C_master_send_stop_condition
     _Peripherals_interrupt_enable
     _Timer1_enable
     _Timer1_write_counter

 _ISR (ROOT)
   Absolute function(Fake) *
   _TIMER1_ISR *
     i1_Timer1_write_counter

 Address spaces:
Name               Size   Autos  Total    Cost      Usage
BANK3               60      0       0       9        0.0%
BITBANK3            60      0       0       8        0.0%
SFR3                 0      0       0       4        0.0%
BITSFR3              0      0       0       4        0.0%
BANK2               60      0       0      11        0.0%
BITBANK2            60      0       0      10        0.0%
SFR2                 0      0       0       5        0.0%
BITSFR2              0      0       0       5        0.0%
BANK1               50      0       0       7        0.0%
BITBANK1            50      0       0       6        0.0%
SFR1                 0      0       0       2        0.0%
BITSFR1              0      0       0       2        0.0%
BANK0               50     1D      3F       5       78.8%
BITBANK0            50      0       0       4        0.0%
SFR0                 0      0       0       1        0.0%
BITSFR0              0      0       0       1        0.0%
COMMON               E      A       D       1       92.9%
BITCOMMON            E      0       0       0        0.0%
CODE                 0      0       0       0        0.0%
DATA                 0      0      4C      12        0.0%
ABS                  0      0      4C       3        0.0%
NULL                 0      0       0       0        0.0%
STACK                0      0       0       2        0.0%
EEDATA             100      0       0       0        0.0%


Microchip Technology PIC Macro Assembler V2.10 build 88905656 
Symbol Table                                                                                   Sat Jul 18 02:23:47 2020

                                           __end_ofi1_Timer1_write_counter 0898  
                                                                        pc 0002  
                                                  __size_of_Timer1_disable 0007  
                                                              __CFG_CP$OFF 0000  
                                                                       l10 019F  
                                                                       l11 019C  
                                                                       l20 01D4  
                                                                       l14 01AD  
                                                                       l15 01B0  
                                                                       l16 01B2  
                                                                       l34 022E  
                                                                       l19 01D7  
                                                                       l51 07E5  
                                                                       l43 07E3  
                                                                       l29 0214  
                                                                       l45 079A  
                                                                       l38 0256  
                                                                       l46 07A6  
                                                                       l64 08A6  
                                                                       l49 07BE  
                                                                       l65 08A7  
                                                                       l59 0C4B  
                                                                       l76 082A  
                                                                       l93 0878  
                                                                       l96 095A  
                                                                       l99 0BB6  
                                                  GPIO_ReadFromPin@a_u8pin 0020  
                                                             ___awdiv@sign 0026  
                                                                       fsr 0004  
                                                   GPIO_ReadFromPin@retVal 0024  
                                                 __size_of_GPIO_WriteOnPin 0100  
                                                                      l133 0071  
                                                                      l205 0288  
                                                                      l320 0E26  
                                                                      l400 082C  
                                                                      l312 0861  
                                                                      l322 0E5D  
                                                                      l331 09B6  
                                                                      l260 077A  
                                                                      l173 059D  
                                                                      l421 0830  
                                                                      l318 0E0D  
                                                                      l166 014F  
                                                                      l238 0356  
                                                                      l350 0A32  
                                                                      l326 09A1  
                                                                      l415 082E  
                                                                      l511 0CA9  
                                                                      l520 0CD6  
                                                                      l504 04CF  
                                                                      l248 0A86  
                                                                      l424 083F  
                                                                      l409 0858  
                                                                      l249 0AA0  
                                                                      l522 0CEF  
                                                                      l370 0DAE  
                                                                      l339 0910  
                                                                      l347 0934  
                                                                      l197 060B  
                                                                      l381 0DFB  
                                                                      l525 0838  
                                                                      l358 0A5B  
                                                                      l702 0EC4  
                                                                      l534 08B7  
                                                                      l519 0CD0  
                                                                      l711 08EC  
                                                                      l367 0987  
                                                                      l463 0C85  
                                                                      l528 07FF  
                                                                      l721 0BFD  
                                                                      l625 0FFF  
                                                                      l482 086B  
                                                                      l650 08C9  
                                                                      l395 0847  
                                                                      l708 08EC  
                                                                      l389 0834  
                                                                      l653 041D  
                                                                      l662 0B2A  
                                                                      l647 0580  
                                                                      l680 0D43  
                                                                      l489 0AE5  
                                                                      l843 0F2C  
                                                                      l667 070C  
                                                                      l659 0B0D  
                                                                      l693 0695  
                                                                      l687 063F  
                                                                      l960 0F95  
                                                                      l973 0D9E  
                                                             __CFG_CPD$OFF 0000  
                                                                      _ISR 09B7  
                                                    _Heater_Initialization 0357  
                                                 GPIO_ReadFromPin@a_u8port 0023  
                                                                      fsr0 0004  
                                                                      indf 0000  
                                                             ___awmod@sign 0026  
                                                             __CFG_FOSC$XT 0000  
                                         __size_of_SevenSegment_SelectChip 00B2  
                                                             __CFG_LVP$OFF 0000  
                                                      _g_u8Reading_counter 004C  
                                                                     ?_ISR 0070  
                                                                     l3001 0DB1  
                                                                     l3011 0DE1  
                                                                     l3003 0DC1  
                                                                     l3013 0DE5  
                                                                     l3005 0DCD  
                                                                     l3031 0591  
                                                                     l3023 0584  
                                                                     l3103 0760  
                                                                     l1079 0B70  
                                                                     l3015 0DE8  
                                                                     l3007 0DD1  
                                                                     l3033 0596  
                                                                     l3025 0585  
                                                                     l3121 0ACD  
                                                                     l3201 0D50  
                                                                     l3105 0779  
                                                                     l3113 0839  
                                                                     l3017 0DF6  
                                                                     l3009 0DDD  
                                                                     l3043 05AA  
                                                                     l3027 058A  
                                                                     l3131 044B  
                                                                     l3123 0ADA  
                                                                     l3115 0AA4  
                                                                     l3211 0D64  
                                                                     l3203 0D52  
                                                                     l3019 0DFA  
                                                                     l3301 01EF  
                                                                     l3053 05BF  
                                                                     l3045 05AF  
                                                                     l3037 059E  
                                                                     l3029 0590  
                                                                     l3141 0498  
                                                                     l3133 0452  
                                                                     l3125 0421  
                                                                     l3117 0AB9  
                                                                     l3221 0D83  
                                                                     l3213 0D6B  
                                                                     l3205 0D56  
                                                                     l3311 0208  
                                                                     l3303 01F6  
                                                                     l3063 05D4  
                                                                     l3055 05C4  
                                                                     l3047 05B3  
                                                                     l3039 05A3  
                                                                     l3143 04A3  
                                                                     l3135 046C  
                                                                     l3127 0426  
                                                                     l3119 0AC6  
                                                                     l3151 0F2D  
                                                                     l3223 0D8A  
                                                                     l3215 0D6F  
                                                                     l3207 0D5B  
                                                                     l3321 0222  
                                                                     l3313 020C  
                                                                     l3305 01FC  
                                                                     l3401 082B  
                                                                     l3073 05E6  
                                                                     l3065 05D9  
                                                                     l3057 05C8  
                                                                     l3049 05B8  
                                                                     l3081 05F2  
                                                                     l3145 04AA  
                                                                     l3137 0477  
                                                                     l3129 0440  
                                                                     l3161 0F3F  
                                                                     l3153 0F30  
                                                                     l3217 0D73  
                                                                     l3209 0D61  
                                                                     l3225 0D90  
                                                                     l3241 0B3F  
                                                                     l3233 0B2B  
                                                                     l3323 0226  
                                                                     l3315 0211  
                                                                     l3307 01FE  
                                                                     l3403 0850  
                                                                     l3075 05EB  
                                                                     l3067 05DD  
                                                                     l3059 05CD  
                                                                     l3147 04C4  
                                                                     l3139 047E  
                                                                     l3171 0F53  
                                                                     l3163 0F44  
                                                                     l3155 0F34  
                                                                     l3227 0D95  
                                                                     l3219 0D7D  
                                                                     l3091 0715  
                                                                     l3411 0BBC  
                                                                     l3251 0B5F  
                                                                     l3243 0B43  
                                                                     l3235 0B2F  
                                                                     l3325 022B  
                                                                     l3317 0218  
                                                                     l3309 0203  
                                                                     l3261 016B  
                                                                     l3341 0796  
                                                                     l3405 082D  
                                                                     l3069 05E2  
                                                                     l3181 0F79  
                                                                     l3173 0F5A  
                                                                     l3165 0F48  
                                                                     l3157 0F39  
                                                                     l3229 0D9A  
                                                                     l3093 0724  
                                                                     l3421 0BF7  
                                                                     l3413 0BCB  
                                                                     l3149 07F9  
                                                                     l3501 0FED  
                                                                     l3253 0B66  
                                                                     l3245 0B47  
                                                                     l3237 0B35  
                                                                     l3319 021D  
                                                                     l3271 0184  
                                                                     l3263 0170  
                                                                     l3351 07B0  
                                                                     l3343 079B  
                                                                     l3335 077E  
                                                                     l3191 0F91  
                                                                     l3183 0F7A  
                                                                     l3175 0F5E  
                                                                     l3167 0F4A  
                                                                     l3159 0F3B  
                                                                     l3431 06AB  
                                                                     l3095 0733  
                                                                     l3415 0BD5  
                                                                     l3423 0BFA  
                                                                     l2711 0988  
                                                                     l3511 0FF4  
                                                                     l3503 0FEE  
                                                                     l3247 0B58  
                                                                     l3239 0B38  
                                                                     l3255 0B6C  
                                                                     l3407 082F  
                                                                     l4071 0C8F  
                                                                     l3281 01A6  
                                                                     l3273 0189  
                                                                     l3265 0177  
                                                                     l3329 0232  
                                                                     l3353 07B8  
                                                                     l3345 07A7  
                                                                     l3337 077F  
                                                                     l3361 07C4  
                                                                     l2801 00DA  
                                                                     l4081 05FA  
                                                                     l3185 0F81  
                                                                     l3177 0F62  
                                                                     l3169 0F50  
                                                                     l3433 06D2  
                                                                     l4073 0768  
                                                                     l3097 0742  
                                                                     l3089 0710  
                                                                     l3409 0BBA  
                                                                     l2721 0A1F  
                                                                     l2713 0998  
                                                                     l3513 0FF8  
                                                                     l3249 0B5E  
                                                                     l3521 04EB  
                                                                     l3601 0630  
                                                                     l3291 01CD  
                                                                     l3283 01B7  
                                                                     l3275 0190  
                                                                     l3267 017D  
                                                                     l3259 0153  
                                                                     l3355 07BC  
                                                                     l3339 078E  
                                                                     l4083 013E  
                                                                     l2803 00DF  
                                                                     l3443 0862  
                                                                     l3451 0CAF  
                                                                     l4075 0A8F  
                                                                     l3179 0F73  
                                                                     l3187 0F87  
                                                                     l3195 0D44  
                                                                     l3435 06D6  
                                                                     l3427 0696  
                                                                     l3099 0751  
                                                                     l3419 0BE6  
                                                                     l2723 0A27  
                                                                     l2731 095E  
                                                                     l2715 09A0  
                                                                     l3515 0FFE  
                                                                     l3371 0BFE  
                                                                     l3531 0540  
                                                                     l3523 0512  
                                                                     l3611 065E  
                                                                     l3603 0638  
                                                                     l3293 01D9  
                                                                     l3285 01BC  
                                                                     l3277 0195  
                                                                     l3269 017F  
                                                                     l4085 07CC  
                                                                     l3349 07AC  
                                                                     l2821 0120  
                                                                     l2813 0105  
                                                                     l3453 0CC1  
                                                                     l3445 0C9D  
                                                                     l4077 0345  
                                                                     l3189 0F8C  
                                                                     l3197 0D47  
                                                                     l3437 06E1  
                                                                     l3429 06A4  
                                                                     l2725 0A3E  
                                                                     l2741 0980  
                                                                     l2733 0963  
                                                                     l2717 09A5  
                                                                     l3509 0FEF  
                                                                     l3373 0C0C  
                                                                     l3533 054C  
                                                                     l3525 0519  
                                                                     l3517 04D0  
                                                                     l3621 068C  
                                                                     l3605 0649  
                                                                     l3613 0663  
                                                                     l4087 023C  
                                                                     l3295 01DE  
                                                                     l3287 01C1  
                                                                     l3279 01A1  
                                                                     l2823 0125  
                                                                     l2815 010B  
                                                                     l2807 00EF  
                                                                     l4079 0CE1  
                                                                     l3455 0CCA  
                                                                     l3463 0CD9  
                                                                     l3447 0CA4  
                                                                     l2903 0329  
                                                                     l2911 033D  
                                                                     l3199 0D4B  
                                                                     l3439 0708  
                                                                     l2727 0A4A  
                                                                     l2743 0984  
                                                                     l2719 09B2  
                                                                     l2751 0900  
                                                                     l3631 0E84  
                                                                     l3375 0C1C  
                                                                     l3383 0898  
                                                                     l3535 0553  
                                                                     l3527 051F  
                                                                     l3543 0568  
                                                                     l3519 04E5  
                                                                     l3615 0680  
                                                                     l3623 0691  
                                                                     l3607 0652  
                                                                     l3391 0BB3  
                                                                     l3471 08A8  
                                                                     l3297 01E3  
                                                                     l3289 01C8  
                                                                     l2817 0110  
                                                                     l2809 00F4  
                                                                     l2761 004B  
                                                                     l3457 0CCE  
                                                                     l3449 0CAA  
                                                                     l3561 035C  
                                                                     l2905 032E  
                                                                     l2841 0261  
                                                                     l3545 08B8  
                                                                     l2921 0A60  
                                                                     l2729 0A58  
                                                                     l2737 0968  
                                                                     l2753 090C  
                                                                     l3481 0FCB  
                                                                     l3633 0E8F  
                                                                     l3641 0EB1  
                                                                     l3625 0E5E  
                                                                     l3377 0C25  
                                                                     l3369 0BFE  
                                                                     l3385 0898  
                                                                     l3537 0559  
                                                                     l3529 0538  
                                                                     l3617 0686  
                                                                     l3609 065A  
                                                                     l3473 08AE  
                                                                     l3299 01EA  
                                                                     l3387 086C  
                                                                     l3395 0859  
                                                                     l2771 0072  
                                                                     l2763 005A  
                                                                     l2755 003F  
                                                                     l3459 0CD1  
                                                                     l3571 0408  
                                                                     l3563 0361  
                                                                     l2843 0266  
                                                                     l3547 08C6  
                                                                     l2931 0A76  
                                                                     l2923 0A6A  
                                                                     l3651 08DE  
                                                                     l2739 0974  
                                                                     l2747 08ED  
                                                                     l3491 0FE7  
                                                                     l3483 0FD9  
                                                                     l3643 0EBF  
                                                                     l3635 0E9C  
                                                                     l3627 0E6D  
                                                                     l3379 0C47  
                                                                     l3539 0564  
                                                                     l3619 0688  
                                                                     l3475 08B2  
                                                                     l3803 0C85  
                                                                     l3557 0829  
                                                                     l2781 0092  
                                                                     l2773 0078  
                                                                     l2765 005B  
                                                                     l2757 0040  
                                                                     l2829 0136  
                                                                     l3397 0831  
                                                                     l3573 040E  
                                                                     l3565 03F8  
                                                                     l2861 02A2  
                                                                     l2853 0289  
                                                                     l2845 0273  
                                                                     l2837 025A  
                                                                     l2933 0A77  
                                                                     l2925 0A6B  
                                                                     l3653 08E4  
                                                                     l3645 08CA  
                                                                     l2749 08F0  
                                                                     l3493 0FE9  
                                                                     l3485 0FDE  
                                                                     l3661 0D03  
                                                                     l3637 0EA9  
                                                                     l3629 0E7E  
                                                                     l3389 0B71  
                                                                     l3469 0835  
                                                                     l3477 08B6  
                                                                     l3581 0AF5  
                                                                     l2951 0EDA  
                                                                     l2775 007D  
                                                                     l2767 0060  
                                                                     l2759 0046  
                                                                     l3399 0843  
                                                                     l3575 0413  
                                                                     l3567 03FD  
                                                                     l3559 0357  
                                                                     l2871 02C1  
                                                                     l2863 02A7  
                                                                     l2855 028F  
                                                                     l2847 0274  
                                                                     l2839 025B  
                                                                     l2935 0A7C  
                                                                     l2927 0A70  
                                                                     l2919 0A5F  
                                                                     l3655 08EA  
                                                                     l3647 08D2  
                                                                     l3495 0FEA  
                                                                     l3487 0FE3  
                                                                     l3479 0F96  
                                                                     l3671 0D25  
                                                                     l3663 0D09  
                                                                     l3639 0EAF  
                                                                     l3591 0B21  
                                                                     l3583 0AFB  
                                                                     l2961 0F14  
                                                                     l2953 0EE7  
                                                                     l2793 00BE  
                                                                     l2785 00A3  
                                                                     l3577 0418  
                                                                     l3569 0402  
                                                                     l2881 02E3  
                                                                     l2857 0294  
                                                                     l2849 0279  
                                                                     l2929 0A71  
                                                                     l3649 08D8  
                                                                     l3497 0FEB  
                                                                     l3489 0FE6  
                                                                     l3673 0D2B  
                                                                     l3665 0D0B  
                                                                     l3657 0CF0  
                                                                     l3593 0B26  
                                                                     l3585 0B01  
                                                                     l2963 0F15  
                                                                     l2955 0EEB  
                                                                     l2947 0EC5  
                                                                     l2971 0DFF  
                                                                     l2795 00C3  
                                                                     l2787 00A9  
                                                                     l2779 008D  
                                                                     l2891 0301  
                                                                     l2883 02E9  
                                                                     l2875 02CF  
                                                                     l2867 02B6  
                                                                     l2939 0A87  
                                                                     l3499 0FEC  
                                                                     l3659 0CFF  
                                                                     l3667 0D10  
                                                                     l3595 060C  
                                                                     l3587 0B06  
                                                                     l3579 0AE6  
                                                                     l2965 0F1E  
                                                                     l2957 0EF4  
                                                                     l2949 0ED7  
                                                                     l2981 0E58  
                                                                     l2973 0E08  
                                                                     l2789 00AE  
                                                                     l2885 02EE  
                                                                     l2877 02D4  
                                                                     l2869 02BC  
                                                                     l3669 0D21  
                                                                     l3677 0D30  
                                                                     l3597 0613  
                                                                     l3589 0B11  
                                                                     l2959 0F06  
                                                                     l2967 0F24  
                                                                     l2983 0E59  
                                                                     l2975 0E0E  
                                                                     l2799 00D4  
                                                                     l2895 0310  
                                                                     l3679 0D3E  
                                                                     l3599 062A  
                                                                     l2991 0914  
                                                                     l3791 0C52  
                                                                     l2985 0E5A  
                                                                     l2977 0E1F  
                                                                     l2897 0316  
                                                                     l2889 02FC  
                                                                     l2993 0924  
                                                                     l3793 0C5E  
                                                                     l2979 0E29  
                                                                     l2899 031B  
                                                                     l2987 0935  
                                                                     l2995 0930  
                                                                     l3795 0C64  
                                                                     l2997 0DA2  
                                                                     l2989 0911  
                                                                     l3797 0C6A  
                                                                     l3789 0C4C  
                                                                     l2999 0DA7  
                                                                     l3799 0C7A  
                                                                     u3000 0F24  
                                                                     u3001 0F23  
                                                    ?_I2C_master_send_data 0070  
                                                                     u3010 0E08  
                                                                     u3011 0E07  
                                                                     u3020 0E1F  
                                                                     u2300 09B2  
                                                                     u3100 0DC1  
                                                                     u3021 0E1E  
                                                                     u2301 09B1  
                                                                     u3101 0DC0  
                                                                     u3030 0E37  
                                                                     u3200 05AF  
                                                                     u2320 0A3E  
                                                                     u4000 0559  
                                                                     u3120 0DCD  
                                                                     u3201 05AE  
                                                                     u2321 0A3D  
                                                                     u4001 0558  
                                                                     u3121 0DCC  
                                                                     u3210 05B8  
                                                                     u2410 0900  
                                                                     u3050 0924  
                                                                     u4010 0AFB  
                                                                     u3035 0E32  
                                                                     u3211 05B7  
                                                                     u2315 0A35  
                                                                     u2411 08FF  
                                                                     u3115 0DC4  
                                                                     u3051 0923  
                                                                     u4011 0AFA  
                                                                     u2500 007D  
                                                                     u3220 05C4  
                                                                     u4100 08D2  
                                                                     u2340 0A4A  
                                                                     u2260 0998  
                                                                     u3140 0DDD  
                                                                     u4020 0B01  
                                                                     u2501 007C  
                                                                     u3221 05C3  
                                                                     u4101 08D1  
                                                                     u2341 0A49  
                                                                     u2261 0997  
                                                                     u2405 08F7  
                                                                     u3141 0DDC  
                                                                     u3045 091B  
                                                                     u4021 0B00  
                                                                     u3230 05CD  
                                                                     u4110 08DE  
                                                                     u2350 0A58  
                                                                     u2270 09A0  
                                                                     u2430 090C  
                                                                     u4030 0613  
                                                                     u3070 0930  
                                                                     u3231 05CC  
                                                                     u4111 08DD  
                                                                     u2351 0A57  
                                                                     u2335 0A41  
                                                                     u2271 099F  
                                                                     u2255 098F  
                                                                     u2431 090B  
                                                                     u4031 0612  
                                                                     u3135 0DD4  
                                                                     u3071 092F  
                                                                     u2600 00DF  
                                                                     u2520 0092  
                                                                     u2440 0046  
                                                                     u3240 05D9  
                                                                     u3320 0AAC  
                                                                     u3400 0F50  
                                                                     u4120 08EA  
                                                                     u3304 0748  
                                                                     u2280 09A5  
                                                                     u4040 0630  
                                                                     u3160 0DF6  
                                                                     u3080 0DA7  
                                                                     u2601 00DE  
                                                                     u2521 0091  
                                                                     u2441 0045  
                                                                     u3241 05D8  
                                                                     u3401 0F4F  
                                                                     u4121 08E9  
                                                                     u3305 0746  
                                                                     u2281 09A4  
                                                                     u2425 0903  
                                                                     u4041 062F  
                                                                     u3161 0DF5  
                                                                     u3081 0DA6  
                                                                     u3065 0927  
                                                                     u2514 0083  
                                                                     u2450 004B  
                                                                     u3250 05E2  
                                                                     u3170 058A  
                                                                     u3330 0ACD  
                                                                     u3314 0757  
                                                                     u2370 0974  
                                                                     u4130 0CFF  
                                                                     u4050 0649  
                                                                     u2515 0081  
                                                                     u2451 004A  
                                                                     u3251 05E1  
                                                                     u3171 0589  
                                                                     u3331 0ACC  
                                                                     u3315 0755  
                                                                     u2371 0973  
                                                                     u4131 0CFE  
                                                                     u4051 0648  
                                                                     u3155 0DED  
                                                                     u2620 00F4  
                                                                     u2540 00A9  
                                                                     u3260 05EB  
                                                                     u3180 0596  
                                                                     u2700 0266  
                                                                     u3340 0426  
                                                                     u3420 0F62  
                                                                     u3500 0D61  
                                                                     u4140 0D09  
                                                                     u4060 0686  
                                                                     u2621 00F3  
                                                                     u2541 00A8  
                                                                     u3261 05EA  
                                                                     u3181 0595  
                                                                     u2701 0265  
                                                                     u3341 0425  
                                                                     u3421 0F61  
                                                                     u3501 0D60  
                                                                     u2365 096B  
                                                                     u4141 0D08  
                                                                     u4061 0685  
                                                                     u2614 00E5  
                                                                     u2550 00AE  
                                                                     u2534 0098  
                                                                     u2470 0060  
                                                                     u3190 05A3  
                                                                     u3350 0452  
                                                                     u2390 0980  
                                                                     u4150 0D21  
                                                                     u4070 0E6D  
                                                                     u4310 0C5E  
                                                                     u2615 00E3  
                                                                     u2551 00AD  
                                                                     u2535 0096  
                                                                     u2471 005F  
                                                                     u3191 05A2  
                                                                     u3351 0451  
                                                                     u3415 0F54  
                                                                     u2391 097F  
                                                                     u2295 09A9  
                                                                     u4151 0D20  
                                                                     u4071 0E6C  
                                                                     u3095 0DB8  
                                                                     u4311 0C5D  
                                                                     u2640 010B  
                                                                     u2464 0051  
                                                                     u2800 02C1  
                                                                     u2720 0279  
                                                                     u3360 047E  
                                                                     u3440 0F73  
                                                                     u3520 0D73  
                                                                     u4160 0D2B  
                                                                     u4080 0E7E  
                                                                     u2641 010A  
                                                                     u2465 004F  
                                                                     u2801 02C0  
                                                                     u2721 0278  
                                                                     u3361 047D  
                                                                     u3441 0F72  
                                                                     u3521 0D72  
                                                                     u2385 0977  
                                                                     u4161 0D2A  
                                                                     u4081 0E7D  
                                                                     u2650 0110  
                                                                     u2634 00FA  
                                                                     u2570 00C3  
                                                                     u2490 0078  
                                                                     u2714 026C  
                                                                     u3370 04AA  
                                                                     u3530 0D7D  
                                                                     u3274 071B  
                                                                     u4170 0D3E  
                                                                     u4090 0EBF  
                                                                     u3610 0B58  
                                                                     u2651 010F  
                                                                     u2635 00F8  
                                                                     u2571 00C2  
                                                                     u2491 0077  
                                                                     u2715 026A  
                                                                     u3371 04A9  
                                                                     u3435 0F63  
                                                                     u3531 0D7C  
                                                                     u3515 0D65  
                                                                     u3275 0719  
                                                                     u4171 0D3D  
                                                                     u4091 0EBE  
                                                                     u3611 0B57  
                                                                     u3700 01BC  
                                                                     u2564 00B4  
                                                                     u2484 0066  
                                                                     u2900 031B  
                                                                     u2820 02D4  
                                                                     u2740 028F  
                                                                     u3460 0F87  
                                                                     u3380 0F34  
                                                                     u3284 072A  
                                                                     u3701 01BB  
                                                                     u2565 00B2  
                                                                     u2485 0064  
                                                                     u2901 031A  
                                                                     u2821 02D3  
                                                                     u2741 028E  
                                                                     u3461 0F86  
                                                                     u3445 0F6F  
                                                                     u3381 0F33  
                                                                     u3285 0728  
                                                                     u3605 0B48  
                                                                     u3710 01C1  
                                                                     u2670 0125  
                                                                     u2590 00DA  
                                                                     u2814 02C7  
                                                                     u2750 0294  
                                                                     u2734 027F  
                                                                     u3470 0F8C  
                                                                     u3390 0F3F  
                                                                     u3550 0D90  
                                                                     u3294 0739  
                                                                     u3630 0B6C  
                                                                     u3711 01C0  
                                                                     u2671 0124  
                                                                     u2591 00D9  
                                                                     u2815 02C5  
                                                                     u2751 0293  
                                                                     u2735 027D  
                                                                     u3471 0F8B  
                                                                     u3455 0F7B  
                                                                     u3391 0F3E  
                                                                     u3551 0D8F  
                                                                     u3535 0D79  
                                                                     u3295 0737  
                                                                     u4327 0BD1  
                                                                     u3631 0B6B  
                                                                     u3615 0B54  
                                                                     u3800 0222  
                                                                     u3720 01CD  
                                                                     u2664 0116  
                                                                     u2584 00C9  
                                                                     u2920 032E  
                                                                     u2840 02E9  
                                                                     u3560 0D95  
                                                                     u3480 0D4B  
                                                                     u3801 0221  
                                                                     u3721 01CC  
                                                                     u2665 0114  
                                                                     u2585 00C7  
                                                                     u2921 032D  
                                                                     u2841 02E8  
                                                                     u3561 0D94  
                                                                     u3545 0D84  
                                                                     u3481 0D4A  
                                                                     u4337 06DC  
                                                                     u3625 0B60  
                                                                     u3810 022B  
                                                                     u3730 01DE  
                                                                     u3650 0170  
                                                                     u2914 0321  
                                                                     u2850 02EE  
                                                                     u2834 02DA  
                                                                     u2770 02A7  
                                                                     u2690 0261  
                                                                     u3490 0D56  
                                                                     u3570 0B35  
                                                                     u3811 022A  
                                                                     u3731 01DD  
                                                                     u3651 016F  
                                                                     u2915 031F  
                                                                     u2851 02ED  
                                                                     u2835 02D8  
                                                                     u2771 02A6  
                                                                     u2691 0260  
                                                                     u3491 0D55  
                                                                     u3571 0B34  
                                                                     u3740 01E3  
                                                                     u3660 0184  
                                                                     u2940 0ED7  
                                                                     u2684 012B  
                                                                     u2764 029A  
                                                                     u3900 0BE6  
                                                                     u3741 01E2  
                                                                     u3661 0183  
                                                                     u3645 015A  
                                                                     u2941 0ED6  
                                                                     u2685 0129  
                                                                     u2765 0298  
                                                                     u3901 0BE5  
                                                                     u3750 01EF  
                                                                     u3670 0189  
                                                                     u2934 0334  
                                                                     u2870 0301  
                                                                     u2790 02BC  
                                                                     u3910 0BF7  
                                                                     u3830 0C0C  
                                                                     u3590 0B47  
                                                                     u3751 01EE  
                                                                     u3671 0188  
                                                                     u2935 0332  
                                                                     u2871 0300  
                                                                     u2791 02BB  
                                                                     u3911 0BF6  
                                                                     u3831 0C0B  
                                                                     u3591 0B46  
                                                                     u3760 0203  
                                                                     u3680 0195  
                                                                     u2960 0EEB  
                                                                     u2864 02F4  
                                                                     u2784 02AD  
                                                                     u3920 06AB  
                                                                     u3761 0202  
                                                                     u3681 0194  
                                                                     u2961 0EEA  
                                                                     u2865 02F2  
                                                                     u2785 02AB  
                                                                     u3921 06AA  
                                                                     u3825 0C03  
                                                                     u3585 0B39  
                                                                     u3770 0208  
                                                                     u3690 01A6  
                                                                     u3930 0CA4  
                                                                     u2890 0316  
                                                                     u3850 0C1C  
                                                                     u3771 0207  
                                                                     u3691 01A5  
                                                                     u2955 0EDC  
                                                                     u3931 0CA3  
                                                                     u2891 0315  
                                                                     u3851 0C1B  
                                                                     u3780 0211  
                                                                     u2980 0F06  
                                                                     u3940 0CAF  
                                                                     u2884 0307  
                                                                     u3781 0210  
                                                                     u2981 0F05  
                                                                     u3941 0CAE  
                                                                     u2885 0305  
                                                                     u3845 0C13  
                                                                     u3790 021D  
                                                                     u3791 021C  
                                                                     u2975 0EED  
                                                                     u3960 0FFE  
                                                                     u3880 08A6  
                                                                     u2985 0F02  
                                                                     u3961 0FFD  
                                                                     u3865 0C2C  
                                                                     u3881 08A5  
                                                                     u3890 0BCB  
                                                                     u3970 04EB  
                                                                     u2995 0F16  
                                                                     u3955 0CB6  
                                                                     u3891 0BCA  
                                                                     u3875 089D  
                                                                     u3971 04EA  
                                                                     u3980 051F  
                                                                     u3981 051E  
                                                                     u3990 0540  
                                                                     u3991 053F  
                                                             __CFG_WRT$OFF 0000  
                                                                     _main 0C4C  
                                       __size_of_I2C_Master_Initialization 0062  
                                                                     btemp 007E  
                                                         _g_Heater_state_t 004F  
                                         __size_of_Global_interrupt_enable 0002  
                                                            __CFG_BOREN$ON 0000  
                                                        ?_GPIO_ReadFromPin 0020  
                                               ?_I2C_Master_Initialization 002E  
                                                                     start 0012  
                                                 __end_of_GPIO_WriteOnPort 0AA1  
                                              GPIO_SetPinDirection@a_u8pin 0020  
                                      __end_of_SevenSegment_Initialization 086C  
                                              _SevenSegment_Initialization 0862  
                                                   GPIO_WriteOnPin@a_u8pin 0020  
                           _Heater_reading_last_ten_temperature_values$532 002F  
                                                       ??_GPIO_ReadFromPin 0021  
                                   __end_of_Heater_heating_cooling_process 0581  
                                  __size_of_Heater_heating_cooling_process 00B1  
                                           _Heater_heating_cooling_process 04D0  
                                                      _timer1_callback_ptr 007C  
                                                    _Timer1_Initialization 0C9D  
                                                                    ??_ISR 0075  
                                                       __size_of_CPU_sleep 0002  
                                                              ?_TIMER1_ISR 0070  
                                                                    ?_main 0070  
                                                          __end_of___awdiv 0F96  
                                               ?_Heater_change_temperature 0070  
                                                            __CFG_WDTE$OFF 0000  
                                                          __end_of___awmod 0D9F  
                                                          __end_of___lldiv 0F2D  
                                                          ___awdiv@divisor 0020  
                                                          __end_of___lwdiv 0B71  
                                                                    i1l437 09DC  
                                                                    i1l534 0897  
                                                                    i1l636 0A1B  
                                                          ___awdiv@counter 0025  
                                                   Heater_turn_off@counter 002C  
                                     __end_of_GPIO_Enable_Pull_Up_On_PortB 0862  
                                    __size_of_GPIO_Enable_Pull_Up_On_PortB 0009  
                                             _GPIO_Enable_Pull_Up_On_PortB 0859  
                                           ??_Peripherals_interrupt_enable 0020  
                                                            __CFG_PWRTE$ON 0000  
                                               ?_External_interrupt_enable 0070  
                                                                    fpbase 0000  
                                           ??_Timer1_set_callback_function 0020  
                                                                    pclath 000A  
                                         _g_u8Heater_real_time_temperature 005D  
                                                                    status 0003  
                                                                    wtemp0 007E  
                                           __size_of_EEPROM_Initialization 000D  
                                            __end_of_EEPROM_Initialization 0879  
                                           _g_u8calculate_temperature_flag 004D  
                                                          _g_u8Reading_arr 003D  
                                        __end_of_I2C_Master_Initialization 0E5E  
                                                     _GPIO_SetPinDirection 003C  
                                                  GPIO_WriteOnPin@a_u8port 0024  
                                       ADC_Initialization@a_ADC_Vref_low_t 0021  
                                                    __end_of_Timer1_enable 0839  
                                             __end_of_Check_ON_Push_Button 0BFE  
                                                          __initialization 0015  
                                                             __end_of_main 0C9D  
                                                  __size_of_Heater_turn_on 0045  
                                                 __end_of_EEPROM_Read_Byte 0BB7  
                                                   ?_Heater_Initialization 0070  
                                                  ??_GPIO_SetPortDirection 0021  
                                                                   ??_main 003B  
                                        __end_of_Heater_change_temperature 0D44  
                                            ?_GPIO_Enable_Pull_Up_On_PortB 0070  
                     __end_of_Heater_check_if_change_state_to_setup_or_off 0EC5  
                    __size_of_Heater_check_if_change_state_to_setup_or_off 0067  
                           ??_Heater_check_if_change_state_to_setup_or_off 002D  
                            ?_Heater_check_if_change_state_to_setup_or_off 0070  
                             _Heater_check_if_change_state_to_setup_or_off 0E5E  
                                                        ??_GPIO_WriteOnPin 0022  
                                        __end_of_External_interrupt_enable 082D  
                                                 __end_of_EEPROM_Save_Byte 095B  
                                                   ??_I2C_master_send_data 0020  
                                                         ___awdiv@dividend 0022  
                                                        __end_of_CPU_sleep 082B  
                                   __end_of_I2C_master_send_stop_condition 0911  
                                  __size_of_I2C_master_send_stop_condition 0024  
                                           _I2C_master_send_stop_condition 08ED  
                                                                   i1l3551 088E  
                                                                   i1l3553 0892  
                                                                   i1l4089 0A10  
                                                                   i1l3555 0896  
                                                                   i1l3549 0888  
                                                                   i1l3681 09E7  
                                                                   i1l3691 09FC  
                                                                   i1l3683 09F1  
                                                                   i1l3693 0A02  
                                                                   i1l3685 09F3  
                                                                   i1l3781 09CC  
                                                                   i1l3773 09B7  
                                                                   i1l3695 0A03  
                                                                   i1l3687 09F4  
                                                                   i1l3775 09BB  
                                                                   i1l3689 09F8  
                                                                   i1l3777 09C0  
                                                                   i1l3699 0A06  
                                                                   i1l3787 09D8  
                                                                   i1l3779 09C6  
                                                      __size_of_TIMER1_ISR 0035  
                                                                   u430_20 09D8  
                                                                   u430_21 09D7  
                                                                   u418_20 0A02  
                                                                   u418_21 0A01  
                                                                   u427_20 09BB  
                                                                   u427_21 09BA  
                                                                   u428_20 09C0  
                                                                   u428_21 09BF  
                                                                   u429_25 09CF  
                                                               __i1fptable 0033  
                                          ??_Peripherals_interrupt_disable 0020  
                                                    ?_GPIO_SetPinDirection 0020  
                                         __end_of_Heater_blank_temperature 08ED  
                                            __size_of_ADC_Select_prescaler 006B  
                                                   ?_Timer1_Initialization 0070  
                                              __size_of_ADC_Initialization 0107  
                                         I2C_master_receive_data@u8_retVal 0022  
                                             __end_of_ADC_Start_conversion 08A8  
                           __end_of_External_interrupt_select_falling_edge 0859  
                          __size_of_External_interrupt_select_falling_edge 0009  
                                 ??_External_interrupt_select_falling_edge 0020  
                                  ?_External_interrupt_select_falling_edge 0070  
                                   _External_interrupt_select_falling_edge 0850  
                                                           _Timer1_disable 07F9  
                                                                ??___awdiv 0024  
                                                                ??___awmod 0024  
                                                                ??___lldiv 0028  
                                                                ??___lwdiv 0024  
                                   __end_of_Heater_display_off_temperature 08CA  
                                  __size_of_Heater_display_off_temperature 0012  
                                           _Heater_display_off_temperature 08B8  
                                                         ___awdiv@quotient 0027  
                                                          ___awmod@divisor 0020  
                                                          ___awmod@counter 0025  
                                                                   fptable 0032  
                                                                   fptotal 0000  
                                                  _SevenSegment_SelectChip 041E  
                                                                   saved_w 007E  
                                                GPIO_WriteOnPort@a_u8value 0020  
                                                  _Global_interrupt_enable 082D  
                                                  __end_of__initialization 002E  
                                                 GPIO_WriteOnPin@a_u8value 0021  
                                                    _g_u8Led_blank_counter 0049  
                                                   __end_of_Timer1_disable 0800  
                                                           __pcstackCOMMON 0070  
                                                             __pidataBANK0 0879  
                                                 ?_I2C_master_receive_data 0070  
                                            GPIO_SetPortDirection@a_u8port 0023  
                                         SevenSegment_Display@a_displayDot 0029  
                                            __size_of_Timer1_write_counter 0010  
                                                 __size_of_Heater_turn_off 006A  
                                            __size_of_SevenSegment_Display 0045  
                                                     _Check_ON_Push_Button 0BB7  
                                        ADC_Initialization@a_ADC_channel_t 0024  
                                                               __pbssBANK0 003D  
                               SevenSegment_Display@u8numberRepresentation 002E  
                                           ??_GPIO_Enable_Pull_Up_On_PortB 0020  
                                                   ??_GPIO_SetPinDirection 0022  
                                              ??_I2C_Master_Initialization 0030  
                            Timer1_write_counter@a_u16init_value_for_timer 0020  
                          i1Timer1_write_counter@a_u16init_value_for_timer 0070  
                                                        ?_GPIO_WriteOnPort 0020  
                                                          ?_Timer1_disable 0070  
                                                               __pmaintext 0C4C  
                                                 _g_u16Sum_of_ten_readings 0047  
                                    __end_of_Peripherals_interrupt_disable 0840  
                                   __size_of_Peripherals_interrupt_disable 0007  
                                            _Peripherals_interrupt_disable 0839  
                                                            _g_u8Sync_flag 004E  
                                                       ??_GPIO_WriteOnPort 0021  
                                                             ??_TIMER1_ISR 0073  
                                                               __pintentry 0004  
                                                 _Heater_blank_temperature 08CA  
                                                           _Heater_turn_on 0AE6  
                                                ??_SevenSegment_SelectChip 0029  
                                                __size_of_GPIO_ReadFromPin 006E  
                                              ??_Heater_change_temperature 002D  
                                                 ?_I2C_master_send_address 0020  
                                                  __size_of_ADC_Read_value 004E  
                                     __size_of_SevenSegment_Initialization 000A  
                                         ??_Heater_heating_cooling_process 0028  
                                          ?_Heater_heating_cooling_process 0070  
                                              ??_External_interrupt_enable 0020  
                                                    ?_Check_ON_Push_Button 0025  
                                                ??_Global_interrupt_enable 0020  
                                                     _ADC_Start_conversion 0898  
                                    __end_of_Heater_display_on_temperature 070D  
                                   __size_of_Heater_display_on_temperature 0077  
                                            _Heater_display_on_temperature 0696  
                                                                  i1fpbase 0038  
                                                       __end_of_TIMER1_ISR 0A1C  
                                    SevenSegment_Display@a_u8displayNumber 0038  
                                          __end_of_I2C_master_receive_data 0DFC  
                                                   __end_of_Heater_turn_on 0B2B  
                                                                  ___awdiv 0F2D  
                                                  ??_Heater_Initialization 0036  
                                                                  ___awmod 0D44  
                                                                  ___lldiv 0EC5  
                                                                  ___lwdiv 0B2B  
                                                          _GPIO_WriteOnPin 0257  
                                                          _Timer1_config_t 005A  
                                                                  __ptext1 0AE6  
                                                                  __ptext2 08A8  
                                                                  __ptext3 0835  
                                                                  __ptext4 082F  
                                                                  __ptext5 0B71  
                                                                  __ptext6 0911  
                                                                  __ptext7 0D9F  
                                                                  __ptext8 060C  
                                                                  __ptext9 04D0  
                                                        ?_EEPROM_Read_Byte 0028  
                                                      __size_of__i1fptable 0009  
                                                _I2C_Master_Initialization 0DFC  
                                                             __size_of_ISR 0030  
                                           __size_of_GPIO_SetPortDirection 008B  
                                            __end_of_GPIO_SetPortDirection 060C  
                                                         ___awmod@dividend 0022  
                                                       ??_EEPROM_Read_Byte 002A  
Heater_reading_last_ten_temperature_values@g_u8Current_reading_temperature 0031  
                                                        ?_EEPROM_Save_Byte 0025  
                                                    ?_ADC_Start_conversion 0070  
                                                                  clrloop0 0849  
                                                     end_of_initialization 002E  
                                                       ??_EEPROM_Save_Byte 0028  
                             I2C_Master_Initialization@a_I2C_master_mode_t 0035  
                                                        ??_Heater_turn_off 002B  
                                                _Heater_change_temperature 0CF0  
                                                 ??i1_Timer1_write_counter 0072  
                                                                _CPU_sleep 0829  
                                                  ??_Timer1_Initialization 0020  
                                            _g_u8Heater_wanted_temperature 005E  
                                                          ___lldiv@divisor 0020  
                                                          ___lldiv@counter 002D  
                                                _External_interrupt_enable 082B  
                                                     ADC_Read_value@retVal 0029  
                                                    _EEPROM_Initialization 086C  
                                    ADC_Select_prescaler@a_ADC_prescaler_t 0022  
                                                          ?_Heater_turn_on 0070  
                                          __end_of_I2C_master_send_address 0A5C  
                                           I2C_master_send_data@a_I2C_Data 0021  
                                           ?_Peripherals_interrupt_disable 0070  
                                             __end_of_ADC_Select_prescaler 07E6  
                                                   ??_Check_ON_Push_Button 0026  
                                                   __size_of_Timer1_enable 0004  
                                         ??_Heater_display_off_temperature 002B  
                                          ?_Heater_display_off_temperature 0070  
                                            __size_of_I2C_master_send_data 002D  
                                                               ?_CPU_sleep 0070  
                                           ?_Heater_display_on_temperature 0070  
                                               __end_of_ADC_Initialization 0257  
                                                  __end_of_GPIO_WriteOnPin 0357  
                                                EEPROM_Read_Byte@u8_retVal 002B  
                                                       _Heater_turn_on$521 002E  
                                                         _GPIO_ReadFromPin 070D  
                                                           _ADC_Read_value 0BFE  
                                                            fp__TIMER1_ISR 0039  
                                                      start_initialization 0015  
                                                              __end_of_ISR 09E7  
                                                   ??_ADC_Start_conversion 0020  
                                         __size_of_I2C_master_receive_data 005D  
                                        GPIO_SetPinDirection@a_u8direction 0021  
                                                         ??_Timer1_disable 0020  
                                             __end_of_Timer1_write_counter 08B8  
                                               ??_Heater_blank_temperature 003B  
                                          __size_ofi1_Timer1_write_counter 0010  
                                                   ?_EEPROM_Initialization 0070  
                                             __end_of_SevenSegment_Display 0AE6  
                                             ?_SevenSegment_Initialization 0070  
                                                            _Timer1_enable 0835  
                                                               init_fetch0 07E6  
                                                              __pdataBANK0 0050  
                                                   __end_of_ADC_Read_value 0C4C  
                         __end_of_I2C_master_send_repeated_start_condition 0935  
                        __size_of_I2C_master_send_repeated_start_condition 0024  
                               ??_I2C_master_send_repeated_start_condition 0020  
                                ?_I2C_master_send_repeated_start_condition 0070  
                                 _I2C_master_send_repeated_start_condition 0911  
                                                       __end_of__i1fptable 003C  
                                                __size_of_GPIO_WriteOnPort 0045  
                                                              __pbssCOMMON 007A  
                                                                ___latbits 0002  
                                                            __pcstackBANK0 0020  
                              Heater_turn_on@u8Saved_temperature_in_EEPROM 0030  
                                         __size_of_I2C_master_send_address 0040  
                                                _g_u8Display_blank_counter 004A  
                                                              ??_CPU_sleep 0020  
                                            __size_of_GPIO_SetPinDirection 0114  
                                              _g_u8Reading_deleted_element 004B  
                                                     _ADC_Select_prescaler 077B  
                                                         ___lwdiv@dividend 0022  
                                                         ?_GPIO_WriteOnPin 0020  
                                                           ?_Timer1_enable 0070  
                                                                __pfunctab 0032  
                                                                 ?___awdiv 0020  
                                                                 ?___awmod 0020  
                                       __size_of_Heater_change_temperature 0054  
                                            ??_SevenSegment_Initialization 0025  
                                                                 ?___lldiv 0020  
                                                                 ?___lwdiv 0020  
                                          _external_interrupt_callback_ptr 007B  
                                           __size_of_Heater_Initialization 00C7  
                                                          ?_ADC_Read_value 0020  
                                            __end_of_Heater_Initialization 041E  
                                       __size_of_External_interrupt_enable 0002  
                                                   i1_Timer1_write_counter 0888  
                                                          _Heater_turn_off 0F96  
                               I2C_Master_Initialization@a_I2C_baud_rate_t 002E  
                                                         ___lwdiv@quotient 0025  
                                             GPIO_SetPinDirection@a_u8port 0024  
                                                __size_of_EEPROM_Read_Byte 0046  
                                                        interrupt_function 0004  
                                I2C_master_receive_data@a_I2C_ack_status_t 0021  
                                                                clear_ram0 0848  
                                                         ??_Heater_turn_on 002C  
                                                    ?_ADC_Select_prescaler 0070  
                                           __size_of_Timer1_Initialization 0053  
                                            __end_of_Timer1_Initialization 0CF0  
                                                __size_of_EEPROM_Save_Byte 0026  
                                            EEPROM_Save_Byte@a_u16Location 0025  
                                                 ?_SevenSegment_SelectChip 0026  
                                  __end_of_I2C_master_send_start_condition 09B7  
                                 __size_of_I2C_master_send_start_condition 002F  
                                        ??_I2C_master_send_start_condition 0020  
                                         ?_I2C_master_send_start_condition 0070  
                                          _I2C_master_send_start_condition 0988  
                                                     _Timer1_write_counter 08A8  
                                                 ?_Global_interrupt_enable 0070  
                                                  _I2C_master_receive_data 0D9F  
                                             Check_ON_Push_Button@a_u8Port 0029  
                                                     _SevenSegment_Display 0AA1  
                                                    _GPIO_SetPortDirection 0581  
                                  I2C_master_send_address@a_I2C_operaton_t 0020  
                                                                 i1fptable 0033  
                                                                 i1fptotal 0002  
                                                 __end_of_GPIO_ReadFromPin 077B  
                                                          ??_Timer1_enable 0020  
                                            EEPROM_Read_Byte@a_u16Location 0028  
                                             __end_of_I2C_master_send_data 0988  
                                                         __size_of___awdiv 0069  
                                                  __end_of_Heater_turn_off 1000  
                                                         __size_of___awmod 005B  
                                                         __size_of___lldiv 0068  
                                                         __size_of___lwdiv 0046  
                                             Check_ON_Push_Button@retVal_t 0028  
                                                       _ADC_Initialization 0150  
                                          ??_Heater_display_on_temperature 0039  
                                                    ?_Timer1_write_counter 0020  
                                                         _GPIO_WriteOnPort 0A5C  
                                                 GPIO_WriteOnPort@a_u8port 0024  
                               Timer1_set_callback_function@a_function_ptr 0021  
                                                    ?_SevenSegment_Display 0029  
                                                          ___lwdiv@divisor 0020  
                                                      ?_ADC_Initialization 0020  
                                                          ___lwdiv@counter 0027  
                                                                 __ptext10 0B2B  
                                                                 __ptext11 0898  
                                                                 __ptext20 0988  
                                                                 __ptext12 0BFE  
                                                                 __ptext21 095B  
                                                                 __ptext13 0E5E  
                                                                 __ptext30 0A5C  
                                                                 __ptext22 0A1C  
                                                                 __ptext14 0CF0  
                                                                 __ptext31 08B8  
                                                                 __ptext23 0BB7  
                                                                 __ptext15 0F96  
                                                                 __ptext40 082D  
                                                                 __ptext32 041E  
                                                                 __ptext24 070D  
                                                                 __ptext16 07F9  
                                                                 __ptext41 003C  
                                                                 __ptext33 0257  
                                                                 __ptext25 08CA  
                                                                 __ptext17 0839  
                                                                 __ptext50 0829  
                                                                 __ptext42 0859  
                                                                 __ptext34 0357  
                                                                 __ptext26 0696  
                                                                 __ptext18 0935  
                                                                 __ptext51 09B7  
                                                                 __ptext43 0850  
                                                                 __ptext35 0840  
                                                                 __ptext27 0D44  
                                                                 __ptext19 08ED  
                                                                 __ptext52 09E7  
                                                                 __ptext44 082B  
                                                                 __ptext36 0831  
                                                                 __ptext28 0F2D  
                                                                 __ptext53 0888  
                                                                 __ptext45 086C  
                                                                 __ptext37 0C9D  
                                                                 __ptext29 0AA1  
                                                                 __ptext46 0DFC  
                                                                 __ptext38 0862  
                                                                 __ptext47 0EC5  
                                                                 __ptext39 0581  
                                                                 __ptext48 077B  
                                                                 __ptext49 0150  
                                            __size_of_Check_ON_Push_Button 0047  
                                                  _I2C_master_send_address 0A1C  
                                      ADC_Initialization@a_ADC_Vref_high_t 0020  
                       __end_of_Heater_reading_last_ten_temperature_values 0696  
                      __size_of_Heater_reading_last_ten_temperature_values 008A  
                             ??_Heater_reading_last_ten_temperature_values 002B  
                              ?_Heater_reading_last_ten_temperature_values 0070  
                               _Heater_reading_last_ten_temperature_values 060C  
                                                  ??_EEPROM_Initialization 0036  
                                                            __size_of_main 0051  
                                                  SevenSegment_Display@F56 0050  
                                                   ??_ADC_Select_prescaler 0020  
                                          __end_of_SevenSegment_SelectChip 04D0  
                                       GPIO_SetPortDirection@a_u8direction 0020  
                                                     ??_ADC_Initialization 0022  
                                     __end_of_Peripherals_interrupt_enable 0831  
                                    __size_of_Peripherals_interrupt_enable 0002  
                                             _Peripherals_interrupt_enable 082F  
                                          __end_of_Global_interrupt_enable 082F  
                                         ??_I2C_master_send_stop_condition 0020  
                                          ?_I2C_master_send_stop_condition 0070  
                                              Check_ON_Push_Button@a_u8Pin 0025  
                                                ??_I2C_master_receive_data 0020  
                                     __end_of_Timer1_set_callback_function 0848  
                                    __size_of_Timer1_set_callback_function 0008  
                                             _Timer1_set_callback_function 0840  
                                                   ?_GPIO_SetPortDirection 0020  
                                                                 init_ram0 07EA  
                                            __size_of_ADC_Start_conversion 0010  
                                                                 intlevel1 0032  
                                           SevenSegment_SelectChip@a_Chip1 002A  
                                           SevenSegment_SelectChip@a_Chip2 0026  
                                           SevenSegment_SelectChip@a_Chip3 0027  
                                           SevenSegment_SelectChip@a_Chip4 0028  
                                                         _EEPROM_Read_Byte 0B71  
                                                         ___lldiv@dividend 0024  
                                                         ??_ADC_Read_value 0022  
                                                         _EEPROM_Save_Byte 0935  
                                                               _TIMER1_ISR 09E7  
                                                  ?i1_Timer1_write_counter 0070  
                                                 EEPROM_Save_Byte@a_u8Data 0027  
                                            ?_Peripherals_interrupt_enable 0070  
                                                         ?_Heater_turn_off 0070  
                                                   ??_Timer1_write_counter 0022  
                                        __size_of_Heater_blank_temperature 0023  
                                                ?_Heater_blank_temperature 0070  
                                             __end_of_GPIO_SetPinDirection 0150  
                                                         ___lldiv@quotient 0029  
                                                   ??_SevenSegment_Display 002A  
                                            ?_Timer1_set_callback_function 0070  
                                                ??_I2C_master_send_address 0021  
                                                      _g_u8End_setup_state 007A  
                                     I2C_master_send_address@a_I2C_Address 0024  
                                                     _I2C_master_send_data 095B  
                                 __end_of_Timer1_enable_overflow_interrupt 0835  
                                __size_of_Timer1_enable_overflow_interrupt 0004  
                                       ??_Timer1_enable_overflow_interrupt 0020  
                                        ?_Timer1_enable_overflow_interrupt 0070  
                                         _Timer1_enable_overflow_interrupt 0831  
